                        .module ildar.c
                        .area text(rom, con, rel)
 0000                   .dbfile ..\COPYSI~1\ildar.c
                        .area data(ram, con, rel)
 0000                   .dbfile ..\COPYSI~1\ildar.c
 0000           _alfa::
 0000                   .blkb 2
                        .area idata
 0000 0000              .word 0
                        .area data(ram, con, rel)
 0002                   .dbfile ..\COPYSI~1\ildar.c
 0002                   .dbfile C:\COPYSI~1\ildar.c
 0002                   .dbsym e alfa _alfa I
 0002           _alfa0::
 0002                   .blkb 2
                        .area idata
 0002 F703              .word 1015
                        .area data(ram, con, rel)
 0004                   .dbfile C:\COPYSI~1\ildar.c
 0004                   .dbsym e alfa0 _alfa0 I
 0004           _alfamin::
 0004                   .blkb 2
                        .area idata
 0004 2300              .word 35
                        .area data(ram, con, rel)
 0006                   .dbfile C:\COPYSI~1\ildar.c
 0006                   .dbsym e alfamin _alfamin I
 0006           _alfamax::
 0006                   .blkb 2
                        .area idata
 0006 A604              .word 1190
                        .area data(ram, con, rel)
 0008                   .dbfile C:\COPYSI~1\ildar.c
 0008                   .dbsym e alfamax _alfamax I
 0008           _k::
 0008                   .blkb 1
                        .area idata
 0008 00                .byte 0
                        .area data(ram, con, rel)
 0009                   .dbfile C:\COPYSI~1\ildar.c
 0009                   .dbsym e k _k c
 0009           _s::
 0009                   .blkb 1
                        .area idata
 0009 01                .byte 1
                        .area data(ram, con, rel)
 000A                   .dbfile C:\COPYSI~1\ildar.c
 000A                   .dbsym e s _s c
 000A           _o::
 000A                   .blkb 1
                        .area idata
 000A 01                .byte 1
                        .area data(ram, con, rel)
 000B                   .dbfile C:\COPYSI~1\ildar.c
 000B                   .dbsym e o _o c
 000B           _p::
 000B                   .blkb 1
                        .area idata
 000B 01                .byte 1
                        .area data(ram, con, rel)
 000C                   .dbfile C:\COPYSI~1\ildar.c
 000C                   .dbsym e p _p c
 000C           _r::
 000C                   .blkb 1
                        .area idata
 000C 01                .byte 1
                        .area data(ram, con, rel)
 000D                   .dbfile C:\COPYSI~1\ildar.c
 000D                   .dbsym e r _r c
 000D           _l::
 000D                   .blkb 1
                        .area idata
 000D 01                .byte 1
                        .area data(ram, con, rel)
 000E                   .dbfile C:\COPYSI~1\ildar.c
 000E                   .dbsym e l _l c
 000E           _oshibka_v::
 000E                   .blkb 4
                        .area idata
 000E 00000000          .word 0,0
                        .area data(ram, con, rel)
 0012                   .dbfile C:\COPYSI~1\ildar.c
 0012                   .dbsym e oshibka_v _oshibka_v L
 0012           _oshibka_i::
 0012                   .blkb 4
                        .area idata
 0012 00000000          .word 0,0
                        .area data(ram, con, rel)
 0016                   .dbfile C:\COPYSI~1\ildar.c
 0016                   .dbsym e oshibka_i _oshibka_i L
 0016           _oshibkaold_v::
 0016                   .blkb 4
                        .area idata
 0016 00000000          .word 0,0
                        .area data(ram, con, rel)
 001A                   .dbfile C:\COPYSI~1\ildar.c
 001A                   .dbsym e oshibkaold_v _oshibkaold_v L
 001A           _oshibkaold_i::
 001A                   .blkb 4
                        .area idata
 001A 00000000          .word 0,0
                        .area data(ram, con, rel)
 001E                   .dbfile C:\COPYSI~1\ildar.c
 001E                   .dbsym e oshibkaold_i _oshibkaold_i L
 001E           _Uvh::
 001E                   .blkb 4
                        .area idata
 001E 00000000          .word 0,0
                        .area data(ram, con, rel)
 0022                   .dbfile C:\COPYSI~1\ildar.c
 0022                   .dbsym e Uvh _Uvh L
 0022           _Urn::
 0022                   .blkb 4
                        .area idata
 0022 00000000          .word 0,0
                        .area data(ram, con, rel)
 0026                   .dbfile C:\COPYSI~1\ildar.c
 0026                   .dbsym e Urn _Urn L
 0026           _Urt::
 0026                   .blkb 4
                        .area idata
 0026 00000000          .word 0,0
                        .area data(ram, con, rel)
 002A                   .dbfile C:\COPYSI~1\ildar.c
 002A                   .dbsym e Urt _Urt L
 002A           _Ui_p::
 002A                   .blkb 4
                        .area idata
 002A 00000000          .word 0,0
                        .area data(ram, con, rel)
 002E                   .dbfile C:\COPYSI~1\ildar.c
 002E                   .dbsym e Ui_p _Ui_p L
 002E           _Ui_i::
 002E                   .blkb 4
                        .area idata
 002E 00000000          .word 0,0
                        .area data(ram, con, rel)
 0032                   .dbfile C:\COPYSI~1\ildar.c
 0032                   .dbsym e Ui_i _Ui_i L
 0032           _Uout_v::
 0032                   .blkb 4
                        .area idata
 0032 00000000          .word 0,0
                        .area data(ram, con, rel)
 0036                   .dbfile C:\COPYSI~1\ildar.c
 0036                   .dbsym e Uout_v _Uout_v L
 0036           _Uout_i::
 0036                   .blkb 4
                        .area idata
 0036 00000000          .word 0,0
                        .area data(ram, con, rel)
 003A                   .dbfile C:\COPYSI~1\ildar.c
 003A                   .dbsym e Uout_i _Uout_i L
 003A           _Uv_i::
 003A                   .blkb 4
                        .area idata
 003A 00000000          .word 0,0
                        .area data(ram, con, rel)
 003E                   .dbfile C:\COPYSI~1\ildar.c
 003E                   .dbsym e Uv_i _Uv_i L
 003E           _Uv_p::
 003E                   .blkb 4
                        .area idata
 003E 00000000          .word 0,0
                        .area data(ram, con, rel)
 0042                   .dbfile C:\COPYSI~1\ildar.c
 0042                   .dbsym e Uv_p _Uv_p L
 0042           _FWD::
 0042                   .blkb 1
                        .area idata
 0042 01                .byte 1
                        .area data(ram, con, rel)
 0043                   .dbfile C:\COPYSI~1\ildar.c
 0043                   .dbsym e FWD _FWD c
 0043           _REV::
 0043                   .blkb 1
                        .area idata
 0043 00                .byte 0
                        .area data(ram, con, rel)
 0044                   .dbfile C:\COPYSI~1\ildar.c
 0044                   .dbsym e REV _REV c
 0044           _FWD_ref::
 0044                   .blkb 1
                        .area idata
 0044 01                .byte 1
                        .area data(ram, con, rel)
 0045                   .dbfile C:\COPYSI~1\ildar.c
 0045                   .dbsym e FWD_ref _FWD_ref c
 0045           _REV_ref::
 0045                   .blkb 1
                        .area idata
 0045 00                .byte 0
                        .area data(ram, con, rel)
 0046                   .dbfile C:\COPYSI~1\ildar.c
 0046                   .dbsym e REV_ref _REV_ref c
 0046           _pause::
 0046                   .blkb 1
                        .area idata
 0046 00                .byte 0
                        .area data(ram, con, rel)
 0047                   .dbfile C:\COPYSI~1\ildar.c
 0047                   .dbsym e pause _pause c
 0047           _standby::
 0047                   .blkb 1
                        .area idata
 0047 01                .byte 1
                        .area data(ram, con, rel)
 0048                   .dbfile C:\COPYSI~1\ildar.c
 0048                   .dbsym e standby _standby c
 0048           _count::
 0048                   .blkb 1
                        .area idata
 0048 00                .byte 0
                        .area data(ram, con, rel)
 0049                   .dbfile C:\COPYSI~1\ildar.c
 0049                   .dbsym e count _count c
 0049           _count1::
 0049                   .blkb 1
                        .area idata
 0049 00                .byte 0
                        .area data(ram, con, rel)
 004A                   .dbfile C:\COPYSI~1\ildar.c
 004A                   .dbsym e count1 _count1 c
 004A           _fault::
 004A                   .blkb 1
                        .area idata
 004A 01                .byte 1
                        .area data(ram, con, rel)
 004B                   .dbfile C:\COPYSI~1\ildar.c
 004B                   .dbsym e fault _fault c
 004B           _global::
 004B                   .blkb 1
                        .area idata
 004B 00                .byte 0
                        .area data(ram, con, rel)
 004C                   .dbfile C:\COPYSI~1\ildar.c
 004C                   .dbsym e global _global c
 004C           _soft_start::
 004C                   .blkb 1
                        .area idata
 004C 00                .byte 0
                        .area data(ram, con, rel)
 004D                   .dbfile C:\COPYSI~1\ildar.c
 004D                   .dbsym e soft_start _soft_start c
 004D           _t::
 004D                   .blkb 2
                        .area idata
 004D 0000              .word 0
                        .area data(ram, con, rel)
 004F                   .dbfile C:\COPYSI~1\ildar.c
 004F                   .dbsym e t _t i
 004F           _sign_voltage::
 004F                   .blkb 1
                        .area idata
 004F 00                .byte 0
                        .area data(ram, con, rel)
 0050                   .dbfile C:\COPYSI~1\ildar.c
 0050                   .dbsym e sign_voltage _sign_voltage c
 0050           _sign_current::
 0050                   .blkb 1
                        .area idata
 0050 00                .byte 0
                        .area data(ram, con, rel)
 0051                   .dbfile C:\COPYSI~1\ildar.c
 0051                   .dbsym e sign_current _sign_current c
 0051           _cnt_i::
 0051                   .blkb 1
                        .area idata
 0051 00                .byte 0
                        .area data(ram, con, rel)
 0052                   .dbfile C:\COPYSI~1\ildar.c
 0052                   .dbsym e cnt_i _cnt_i c
 0052           _alfa_i::
 0052                   .blkb 2
                        .area idata
 0052 0000              .word 0
                        .area data(ram, con, rel)
 0054                   .dbfile C:\COPYSI~1\ildar.c
 0054                   .dbsym e alfa_i _alfa_i i
 0054           _flag_1::
 0054                   .blkb 1
                        .area idata
 0054 00                .byte 0
                        .area data(ram, con, rel)
 0055                   .dbfile C:\COPYSI~1\ildar.c
 0055                   .dbsym e flag_1 _flag_1 c
 0055           _flag_2::
 0055                   .blkb 1
                        .area idata
 0055 00                .byte 0
                        .area data(ram, con, rel)
 0056                   .dbfile C:\COPYSI~1\ildar.c
 0056                   .dbsym e flag_2 _flag_2 c
 0056           _post_1::
 0056                   .blkb 1
                        .area idata
 0056 00                .byte 0
                        .area data(ram, con, rel)
 0057                   .dbfile C:\COPYSI~1\ildar.c
 0057                   .dbsym e post_1 _post_1 c
 0057           _post_2::
 0057                   .blkb 1
                        .area idata
 0057 00                .byte 0
                        .area data(ram, con, rel)
 0058                   .dbfile C:\COPYSI~1\ildar.c
 0058                   .dbsym e post_2 _post_2 c
 0058           _temp::
 0058                   .blkb 2
                        .area idata
 0058 0000              .word 0
                        .area data(ram, con, rel)
 005A                   .dbfile C:\COPYSI~1\ildar.c
 005A                   .dbsym e temp _temp i
 005A           _data::
 005A                   .blkb 1
                        .area idata
 005A 00                .byte 0
                        .area data(ram, con, rel)
 005B                   .dbfile C:\COPYSI~1\ildar.c
 005B                   .dbsym e data _data c
 005B           _uart_data::
 005B                   .blkb 1
                        .area idata
 005B 00                .byte 0
                        .area data(ram, con, rel)
 005C                   .dbfile C:\COPYSI~1\ildar.c
 005C                   .dbsym e uart_data _uart_data c
 005C           _flag1_1::
 005C                   .blkb 1
                        .area idata
 005C 00                .byte 0
                        .area data(ram, con, rel)
 005D                   .dbfile C:\COPYSI~1\ildar.c
 005D                   .dbsym e flag1_1 _flag1_1 c
 005D           _flag1_2::
 005D                   .blkb 1
                        .area idata
 005D 00                .byte 0
                        .area data(ram, con, rel)
 005E                   .dbfile C:\COPYSI~1\ildar.c
 005E                   .dbsym e flag1_2 _flag1_2 c
 005E           _kprop_v::
 005E                   .blkb 2
                        .area idata
 005E 0000              .word 0
                        .area data(ram, con, rel)
 0060                   .dbfile C:\COPYSI~1\ildar.c
 0060                   .dbsym e kprop_v _kprop_v i
 0060           _tinteg_v::
 0060                   .blkb 2
                        .area idata
 0060 0000              .word 0
                        .area data(ram, con, rel)
 0062                   .dbfile C:\COPYSI~1\ildar.c
 0062                   .dbsym e tinteg_v _tinteg_v i
 0062           _fkvant::
 0062                   .blkb 2
                        .area idata
 0062 0000              .word 0
                        .area data(ram, con, rel)
 0064                   .dbfile C:\COPYSI~1\ildar.c
 0064                   .dbsym e fkvant _fkvant i
 0064           _kprop_i::
 0064                   .blkb 2
                        .area idata
 0064 0000              .word 0
                        .area data(ram, con, rel)
 0066                   .dbfile C:\COPYSI~1\ildar.c
 0066                   .dbsym e kprop_i _kprop_i i
 0066           _tinteg_i::
 0066                   .blkb 2
                        .area idata
 0066 0000              .word 0
                        .area data(ram, con, rel)
 0068                   .dbfile C:\COPYSI~1\ildar.c
 0068                   .dbsym e tinteg_i _tinteg_i i
 0068           _iupor::
 0068                   .blkb 2
                        .area idata
 0068 0000              .word 0
                        .area data(ram, con, rel)
 006A                   .dbfile C:\COPYSI~1\ildar.c
 006A                   .dbsym e iupor _iupor i
 006A           _kos_v::
 006A                   .blkb 2
                        .area idata
 006A 0000              .word 0
                        .area data(ram, con, rel)
 006C                   .dbfile C:\COPYSI~1\ildar.c
 006C                   .dbsym e kos_v _kos_v i
 006C           _kos_i::
 006C                   .blkb 2
                        .area idata
 006C 0000              .word 0
                        .area data(ram, con, rel)
 006E                   .dbfile C:\COPYSI~1\ildar.c
 006E                   .dbsym e kos_i _kos_i i
                        .area text(rom, con, rel)
 0000                   .dbfile C:\COPYSI~1\ildar.c
 0000                   .dbfunc e init_devices _init_devices fV
                        .even
 0000           _init_devices::
 0000                   .dbline -1
 0000                   .dbline 43
 0000           ; //ICC-AVR application builder : 31.10.2010 12:51:20
 0000           ; // Target : M32
 0000           ; // Crystal: 8.0000Mhz
 0000           ; 
 0000           ; #include <iom32v.h>
 0000           ; #include <macros.h>
 0000           ; 
 0000           ; //------------converter---------------------
 0000           ; signed int alfa=0;
 0000           ; signed int alfa0=1015;//1 deg.=7
 0000           ; signed int alfamin=35;//1 deg.=7
 0000           ; signed int alfamax=1190;//1 deg.=7
 0000           ; signed int value;
 0000           ; signed int volt_os, tok_os;
 0000           ; unsigned char  k=0, s=1, o=1, p=1, r=1, l=1;
 0000           ; signed long oshibka_v=0, oshibka_i=0, oshibkaold_v=0, oshibkaold_i=0; 
 0000           ; signed long Uvh=0, Urn=0, Urt=0, Ui_p=0, Ui_i=0;
 0000           ; signed long Uout_v=0, Uout_i=0, Uv_i=0, Uv_p=0;
 0000           ; unsigned char FWD=1, REV=0;
 0000           ; unsigned char FWD_ref=1, REV_ref=0;
 0000           ; unsigned char pause=0,standby=1;
 0000           ; unsigned char count=0,count1=0;
 0000           ; unsigned char fault=1, global=0;
 0000           ; unsigned char soft_start=0;
 0000           ; unsigned int t=0;
 0000           ; //----------------indicator-----------------------
 0000           ; unsigned char sign_voltage=0,sign_current=0;
 0000           ; unsigned char cnt_i=0;//periods counter
 0000           ; unsigned int alfa_i=0, current_i[20], voltage_i[20];
 0000           ; signed int tok_i, volt_i;
 0000           ; //-----------------usart--------------------------
 0000           ; unsigned char flag_1=0,flag_2=0, post_1=0, post_2=0;
 0000           ; unsigned int temp=0;
 0000           ; unsigned char data=0x00;
 0000           ; unsigned char uart_data=0x00;
 0000           ; unsigned char flag1_1=0, flag1_2=0;
 0000           ; //---------------regulator-------------------
 0000           ; unsigned int kprop_v=0, tinteg_v=0, fkvant=0;
 0000           ; unsigned int kprop_i=0, tinteg_i=0, iupor=0;
 0000           ; unsigned int kos_v=0, kos_i=0;
 0000           ; //------------------------------------------
 0000           ; void init_devices(void)
 0000           ; {
 0000                   .dbline 44
 0000           ;  CLI(); 
 0000 F894              cli
 0002                   .dbline 45
 0002           ;  port_init();
 0002 0DD0              xcall _port_init
 0004                   .dbline 46
 0004           ;  adc_init();
 0004 1BD0              xcall _adc_init
 0006                   .dbline 47
 0006           ;  timer0_init();
 0006 21D0              xcall _timer0_init
 0008                   .dbline 48
 0008           ;  timer1_init();
 0008 28D0              xcall _timer1_init
 000A                   .dbline 49
 000A           ;  timer2_init();
 000A 32D0              xcall _timer2_init
 000C                   .dbline 50
 000C           ;  uart0_init();
 000C 39D0              xcall _uart0_init
 000E                   .dbline 51
 000E           ;  MCUCR = 0x05;//any logical change of INT0, INT1
 000E 85E0              ldi R24,5
 0010 85BF              out 0x35,R24
 0012                   .dbline 52
 0012           ;  GICR  = 0xC0;// INT0, INT1 enabled
 0012 80EC              ldi R24,192
 0014 8BBF              out 0x3b,R24
 0016                   .dbline 53
 0016           ;  TIMSK = 0x92;// T1Compare, T0Compare, T2Compare
 0016 82E9              ldi R24,146
 0018 89BF              out 0x39,R24
 001A                   .dbline 54
 001A           ;  SEI(); 
 001A 7894              sei
 001C                   .dbline -2
 001C           L1:
 001C                   .dbline 0 ; func end
 001C 0895              ret
 001E                   .dbend
 001E                   .dbfunc e port_init _port_init fV
                        .even
 001E           _port_init::
 001E                   .dbline -1
 001E                   .dbline 58
 001E           ; }
 001E           ; 
 001E           ; void port_init(void)
 001E           ; {
 001E                   .dbline 59
 001E           ;  PORTA = 0xF8;
 001E 88EF              ldi R24,248
 0020 8BBB              out 0x1b,R24
 0022                   .dbline 60
 0022           ;  DDRA  = 0x00;
 0022 2224              clr R2
 0024 2ABA              out 0x1a,R2
 0026                   .dbline 61
 0026           ;  PORTB = 0x3F;
 0026 8FE3              ldi R24,63
 0028 88BB              out 0x18,R24
 002A                   .dbline 62
 002A           ;  DDRB  = 0x00;
 002A 27BA              out 0x17,R2
 002C                   .dbline 63
 002C           ;  PORTC = 0x00; 
 002C 25BA              out 0x15,R2
 002E                   .dbline 64
 002E           ;  DDRC  = 0xFF;
 002E 8FEF              ldi R24,255
 0030 84BB              out 0x14,R24
 0032                   .dbline 65
 0032           ;  PORTD = 0x4C;//01001100=0x4C
 0032 8CE4              ldi R24,76
 0034 82BB              out 0x12,R24
 0036                   .dbline 66
 0036           ;  DDRD  = 0xB3; //10110011=0xB3
 0036 83EB              ldi R24,179
 0038 81BB              out 0x11,R24
 003A                   .dbline -2
 003A           L2:
 003A                   .dbline 0 ; func end
 003A 0895              ret
 003C                   .dbend
 003C                   .dbfunc e adc_init _adc_init fV
                        .even
 003C           _adc_init::
 003C                   .dbline -1
 003C                   .dbline 70
 003C           ; }
 003C           ; 
 003C           ; void adc_init(void)
 003C           ; {
 003C                   .dbline 71
 003C           ;  ADCSRA = 0x00; 
 003C 2224              clr R2
 003E 26B8              out 0x6,R2
 0040                   .dbline 72
 0040           ;  ADMUX = 0x40;// AVCC reference voltage
 0040 80E4              ldi R24,64
 0042 87B9              out 0x7,R24
 0044                   .dbline 73
 0044           ;  ADCSRA  = 0x8E;//ADEN, clk/64 prescaler (100us conversion time)
 0044 8EE8              ldi R24,142
 0046 86B9              out 0x6,R24
 0048                   .dbline -2
 0048           L3:
 0048                   .dbline 0 ; func end
 0048 0895              ret
 004A                   .dbend
 004A                   .dbfunc e timer0_init _timer0_init fV
                        .even
 004A           _timer0_init::
 004A                   .dbline -1
 004A                   .dbline 77
 004A           ; }
 004A           ; 
 004A           ; void timer0_init(void)
 004A           ; {
 004A                   .dbline 78
 004A           ;  TCCR0 = 0x00;
 004A 2224              clr R2
 004C 23BE              out 0x33,R2
 004E                   .dbline 79
 004E           ;  TCNT0 = 0x00;
 004E 22BE              out 0x32,R2
 0050                   .dbline 80
 0050           ;  OCR0  = 0x7D;//1 ms gain
 0050 8DE7              ldi R24,125
 0052 8CBF              out 0x3c,R24
 0054                   .dbline 81
 0054           ;  TCCR0 = 0x8B;//clk/64 CTC mode
 0054 8BE8              ldi R24,139
 0056 83BF              out 0x33,R24
 0058                   .dbline -2
 0058           L4:
 0058                   .dbline 0 ; func end
 0058 0895              ret
 005A                   .dbend
 005A                   .dbfunc e timer1_init _timer1_init fV
                        .even
 005A           _timer1_init::
 005A                   .dbline -1
 005A                   .dbline 85
 005A           ; }
 005A           ; 
 005A           ; void timer1_init(void)
 005A           ; {
 005A                   .dbline 86
 005A           ;  TCCR1B = 0x00; 
 005A 2224              clr R2
 005C 2EBC              out 0x2e,R2
 005E                   .dbline 87
 005E           ;  TCNT1H = 0x00; 
 005E 2DBC              out 0x2d,R2
 0060                   .dbline 88
 0060           ;  TCNT1L = 0x00;
 0060 2CBC              out 0x2c,R2
 0062                   .dbline 89
 0062           ;  OCR1AH = 0x00;
 0062 2BBC              out 0x2b,R2
 0064                   .dbline 90
 0064           ;  OCR1AL = 0x00;
 0064 2ABC              out 0x2a,R2
 0066                   .dbline 91
 0066           ;  OCR1BH = 0x00;
 0066 29BC              out 0x29,R2
 0068                   .dbline 92
 0068           ;  OCR1BL = 0x00;
 0068 28BC              out 0x28,R2
 006A                   .dbline 93
 006A           ;  TCCR1A = 0x00;
 006A 2FBC              out 0x2f,R2
 006C                   .dbline 94
 006C           ;  TCCR1B = 0x00;// to start write 0x03 (clk/64)
 006C 2EBC              out 0x2e,R2
 006E                   .dbline -2
 006E           L5:
 006E                   .dbline 0 ; func end
 006E 0895              ret
 0070                   .dbend
 0070                   .dbfunc e timer2_init _timer2_init fV
                        .even
 0070           _timer2_init::
 0070                   .dbline -1
 0070                   .dbline 98
 0070           ; }
 0070           ; 
 0070           ; void timer2_init(void)
 0070           ; {
 0070                   .dbline 99
 0070           ;  TCCR2 = 0x00; 
 0070 2224              clr R2
 0072 25BC              out 0x25,R2
 0074                   .dbline 100
 0074           ;  TCNT2 = 0x00; 
 0074 24BC              out 0x24,R2
 0076                   .dbline 101
 0076           ;  ASSR = 0x00;
 0076 22BC              out 0x22,R2
 0078                   .dbline 102
 0078           ;  OCR2  = 0x9C;//5ms pause
 0078 8CE9              ldi R24,156
 007A 83BD              out 0x23,R24
 007C                   .dbline 103
 007C           ;  TCCR2 = 0x00;//to start write 0x06
 007C 25BC              out 0x25,R2
 007E                   .dbline -2
 007E           L6:
 007E                   .dbline 0 ; func end
 007E 0895              ret
 0080                   .dbend
 0080                   .dbfunc e uart0_init _uart0_init fV
                        .even
 0080           _uart0_init::
 0080                   .dbline -1
 0080                   .dbline 107
 0080           ; }
 0080           ; 
 0080           ; void uart0_init(void)
 0080           ; {
 0080                   .dbline 108
 0080           ;  UCSRB = 0x00; 
 0080 2224              clr R2
 0082 2AB8              out 0xa,R2
 0084                   .dbline 109
 0084           ;  UCSRA = 0x00;//uni-processor mode, 1x speed
 0084 2BB8              out 0xb,R2
 0086                   .dbline 110
 0086           ;  UCSRC = (1<<URSEL)|(1<<USBS)|(1<<UCSZ1)|(1<<UCSZ0); //8-bit frame
 0086 8EE8              ldi R24,142
 0088 80BD              out 0x20,R24
 008A                   .dbline 111
 008A           ;  UBRRL = 0x33;//0x33 - 9600 baud for 8MHz
 008A 83E3              ldi R24,51
 008C 89B9              out 0x9,R24
 008E                   .dbline 112
 008E           ;  UBRRH = 0x00;//
 008E 20BC              out 0x20,R2
 0090                   .dbline 113
 0090           ;  UCSRB = (1<<RXCIE)|(1<<RXEN)|(1<<TXEN);//RX enable, RX complete int,TX enable
 0090 88E9              ldi R24,152
 0092 8AB9              out 0xa,R24
 0094                   .dbline -2
 0094           L7:
 0094                   .dbline 0 ; func end
 0094 0895              ret
 0096                   .dbend
                        .area vector(rom, abs)
                        .org 64
 0040 0C944B00          jmp _adc_isr
                        .area text(rom, con, rel)
 0096                   .dbfile C:\COPYSI~1\ildar.c
 0096                   .dbfunc e adc_isr _adc_isr fV
                        .even
 0096           _adc_isr::
 0096 1A92              st -y,R1
 0098 2A92              st -y,R2
 009A 3A92              st -y,R3
 009C 4A92              st -y,R4
 009E 5A92              st -y,R5
 00A0 0A93              st -y,R16
 00A2 1A93              st -y,R17
 00A4 2A93              st -y,R18
 00A6 3A93              st -y,R19
 00A8 8A93              st -y,R24
 00AA 9A93              st -y,R25
 00AC AA93              st -y,R26
 00AE EA93              st -y,R30
 00B0 FA93              st -y,R31
 00B2 1FB6              IN R1,63
 00B4 1A92              st -y,R1
 00B6 4A93              st -y,R20
 00B8 5A93              st -y,R21
 00BA                   .dbline -1
 00BA                   .dbline 118
 00BA           ; }
 00BA           ; 
 00BA           ; #pragma interrupt_handler adc_isr:iv_ADC
 00BA           ; void adc_isr(void)
 00BA           ; {
 00BA                   .dbline 119
 00BA           ;  CLI();
 00BA F894              cli
 00BC                   .dbline 120
 00BC           ;  value=ADCL;
 00BC 24B0              in R2,0x4
 00BE 3324              clr R3
 00C0 30925900          sts _value+1,R3
 00C4 20925800          sts _value,R2
 00C8                   .dbline 121
 00C8           ;  value|=ADCH<<8;
 00C8 25B0              in R2,0x5
 00CA 3324              clr R3
 00CC 322C              mov R3,R2
 00CE 2224              clr R2
 00D0 40905800          lds R4,_value
 00D4 50905900          lds R5,_value+1
 00D8 4228              or R4,R2
 00DA 5328              or R5,R3
 00DC 50925900          sts _value+1,R5
 00E0 40925800          sts _value,R4
 00E4                   .dbline 122
 00E4           ;  value=value-0x1FF;//2,5V zero point
 00E4 C201              movw R24,R4
 00E6 8F5F              subi R24,255
 00E8 9140              sbci R25,1
 00EA 90935900          sts _value+1,R25
 00EE 80935800          sts _value,R24
 00F2                   .dbline 123
 00F2           ;  switch(ADMUX)
 00F2 47B1              in R20,0x7
 00F4 5527              clr R21
 00F6 4034              cpi R20,64
 00F8 E0E0              ldi R30,0
 00FA 5E07              cpc R21,R30
 00FC 51F0              breq L12
 00FE           X0:
 00FE 4134              cpi R20,65
 0100 E0E0              ldi R30,0
 0102 5E07              cpc R21,R30
 0104 79F1              breq L15
 0106           X1:
 0106 4234              cpi R20,66
 0108 E0E0              ldi R30,0
 010A 5E07              cpc R21,R30
 010C 09F4              brne X16
 010E ACC0              xjmp L26
 0110           X16:
 0110           X2:
 0110 39C1              xjmp L9
 0112           L12:
 0112                   .dbline 126
 0112           ;   {
 0112           ;   case 0x40://Uvh
 0112           ;                                if(value>=-4&&value<=4) PORTC|=0x80;
 0112 20905800          lds R2,_value
 0116 30905900          lds R3,_value+1
 011A C101              movw R24,R2
 011C 8C3F              cpi R24,252
 011E EFEF              ldi R30,255
 0120 9E07              cpc R25,R30
 0122 3CF0              brlt L13
 0124           X3:
 0124 84E0              ldi R24,4
 0126 90E0              ldi R25,0
 0128 8215              cp R24,R2
 012A 9305              cpc R25,R3
 012C 14F0              brlt L13
 012E           X4:
 012E                   .dbline 126
 012E AF9A              sbi 0x15,7
 0130 03C0              xjmp L14
 0132           L13:
 0132                   .dbline 127
 0132           ;                  else PORTC&=0x7F;//zero point indication  
 0132 85B3              in R24,0x15
 0134 8F77              andi R24,127
 0136 85BB              out 0x15,R24
 0138           L14:
 0138                   .dbline 128
 0138           ;                                 Uvh=value;
 0138 20905800          lds R2,_value
 013C 30905900          lds R3,_value+1
 0140 4424              clr R4
 0142 37FC              sbrc R3,7
 0144 4094              com R4
 0146 5524              clr R5
 0148 47FC              sbrc R4,7
 014A 5094              com R5
 014C 30921F00          sts _Uvh+1,R3
 0150 20921E00          sts _Uvh,R2
 0154 50922100          sts _Uvh+2+1,R5
 0158 40922000          sts _Uvh+2,R4
 015C                   .dbline 129
 015C           ;                                 ADMUX=0x41;
 015C 81E4              ldi R24,65
 015E 87B9              out 0x7,R24
 0160                   .dbline 130
 0160           ;                                 ADCSRA|=0x40;//restart ADC
 0160 369A              sbi 0x6,6
 0162                   .dbline 131
 0162           ;   break;
 0162 10C1              xjmp L10
 0164           L15:
 0164                   .dbline 133
 0164           ;   case 0x41://Voltage
 0164           ;                                 if(value>=-4&&value<=4) PORTC|=0x40;
 0164 20905800          lds R2,_value
 0168 30905900          lds R3,_value+1
 016C C101              movw R24,R2
 016E 8C3F              cpi R24,252
 0170 EFEF              ldi R30,255
 0172 9E07              cpc R25,R30
 0174 3CF0              brlt L16
 0176           X5:
 0176 84E0              ldi R24,4
 0178 90E0              ldi R25,0
 017A 8215              cp R24,R2
 017C 9305              cpc R25,R3
 017E 14F0              brlt L16
 0180           X6:
 0180                   .dbline 133
 0180 AE9A              sbi 0x15,6
 0182 03C0              xjmp L17
 0184           L16:
 0184                   .dbline 134
 0184           ;                   else PORTC&=0xBF;//zero point indication  
 0184 85B3              in R24,0x15
 0186 8F7B              andi R24,191
 0188 85BB              out 0x15,R24
 018A           L17:
 018A                   .dbline 135
 018A           ;                                 voltage_i[count1]=value;
 018A 80E0              ldi R24,<_voltage_i
 018C 90E0              ldi R25,>_voltage_i
 018E E0914900          lds R30,_count1
 0192 FF27              clr R31
 0194 EE0F              lsl R30
 0196 FF1F              rol R31
 0198 E80F              add R30,R24
 019A F91F              adc R31,R25
 019C 20905800          lds R2,_value
 01A0 30905900          lds R3,_value+1
 01A4 3182              std z+1,R3
 01A6 2082              std z+0,R2
 01A8                   .dbline 136
 01A8           ;                                 volt_os=value;
 01A8 20905800          lds R2,_value
 01AC 30905900          lds R3,_value+1
 01B0 30925700          sts _volt_os+1,R3
 01B4 20925600          sts _volt_os,R2
 01B8                   .dbline 137
 01B8           ;                                 count1+=1;
 01B8 80914900          lds R24,_count1
 01BC 8F5F              subi R24,255    ; addi 1
 01BE 80934900          sts _count1,R24
 01C2                   .dbline 138
 01C2           ;                                 if(count1==20)
 01C2 8431              cpi R24,20
 01C4 09F0              breq X17
 01C6 4CC0              xjmp L18
 01C8           X17:
 01C8           X7:
 01C8                   .dbline 139
 01C8           ;                                  {
 01C8                   .dbline 140
 01C8           ;                                   volt_i=0;
 01C8 2224              clr R2
 01CA 3324              clr R3
 01CC 30920100          sts _volt_i+1,R3
 01D0 20920000          sts _volt_i,R2
 01D4                   .dbline 141
 01D4           ;                                   for(count1=0;count1<20;count1++)
 01D4 20924900          sts _count1,R2
 01D8 1AC0              xjmp L23
 01DA           L20:
 01DA                   .dbline 142
 01DA           ;                                   {
 01DA                   .dbline 143
 01DA           ;                                    volt_i=volt_i+voltage_i[count1];
 01DA 80E0              ldi R24,<_voltage_i
 01DC 90E0              ldi R25,>_voltage_i
 01DE E0914900          lds R30,_count1
 01E2 FF27              clr R31
 01E4 EE0F              lsl R30
 01E6 FF1F              rol R31
 01E8 E80F              add R30,R24
 01EA F91F              adc R31,R25
 01EC 2080              ldd R2,z+0
 01EE 3180              ldd R3,z+1
 01F0 40900000          lds R4,_volt_i
 01F4 50900100          lds R5,_volt_i+1
 01F8 420C              add R4,R2
 01FA 531C              adc R5,R3
 01FC 50920100          sts _volt_i+1,R5
 0200 40920000          sts _volt_i,R4
 0204                   .dbline 144
 0204           ;                                   }
 0204           L21:
 0204                   .dbline 141
 0204 80914900          lds R24,_count1
 0208 8F5F              subi R24,255    ; addi 1
 020A 80934900          sts _count1,R24
 020E           L23:
 020E                   .dbline 141
 020E 80914900          lds R24,_count1
 0212 8431              cpi R24,20
 0214 10F3              brlo L20
 0216           X8:
 0216                   .dbline 145
 0216           ;                                  volt_i=volt_i/20;
 0216 24E1              ldi R18,20
 0218 30E0              ldi R19,0
 021A 00910000          lds R16,_volt_i
 021E 10910100          lds R17,_volt_i+1
 0222 0E940000          xcall div16s
 0226 10930100          sts _volt_i+1,R17
 022A 00930000          sts _volt_i,R16
 022E                   .dbline 146
 022E           ;                                  count1=0;
 022E 2224              clr R2
 0230 20924900          sts _count1,R2
 0234                   .dbline 147
 0234           ;                                  if(volt_i>=0) 
 0234 0030              cpi R16,0
 0236 E0E0              ldi R30,0
 0238 1E07              cpc R17,R30
 023A 1CF0              brlt L24
 023C           X9:
 023C                   .dbline 148
 023C           ;                                        {
 023C                   .dbline 149
 023C           ;                                        sign_voltage=0;
 023C 20924F00          sts _sign_voltage,R2
 0240                   .dbline 150
 0240           ;                                        }
 0240 0FC0              xjmp L25
 0242           L24:
 0242                   .dbline 152
 0242           ;                                       else 
 0242           ;                                        {
 0242                   .dbline 153
 0242           ;                                        sign_voltage=1;//sign of measured voltage
 0242 81E0              ldi R24,1
 0244 80934F00          sts _sign_voltage,R24
 0248                   .dbline 154
 0248           ;                                        volt_i=-volt_i;//modul of measured voltage
 0248 80910000          lds R24,_volt_i
 024C 90910100          lds R25,_volt_i+1
 0250 8095              com R24
 0252 9095              com R25
 0254 8F5F              subi R24,0xFF
 0256 9F4F              sbci R25,0xFF
 0258 90930100          sts _volt_i+1,R25
 025C 80930000          sts _volt_i,R24
 0260                   .dbline 155
 0260           ;                                        }
 0260           L25:
 0260                   .dbline 156
 0260           ;                                 }
 0260           L18:
 0260                   .dbline 157
 0260           ;                                 ADMUX=0x42;
 0260 82E4              ldi R24,66
 0262 87B9              out 0x7,R24
 0264                   .dbline 158
 0264           ;                                 ADCSRA|=0x40;//restart ADC
 0264 369A              sbi 0x6,6
 0266                   .dbline 159
 0266           ;   break;
 0266 8EC0              xjmp L10
 0268           L26:
 0268                   .dbline 161
 0268           ;   case 0x42://Current
 0268           ;                                if(value>=-4&&value<=4) PORTC|=0x20;
 0268 40915800          lds R20,_value
 026C 50915900          lds R21,_value+1
 0270 4C3F              cpi R20,252
 0272 EFEF              ldi R30,255
 0274 5E07              cpc R21,R30
 0276 3CF0              brlt L27
 0278           X10:
 0278 84E0              ldi R24,4
 027A 90E0              ldi R25,0
 027C 8417              cp R24,R20
 027E 9507              cpc R25,R21
 0280 14F0              brlt L27
 0282           X11:
 0282                   .dbline 161
 0282 AD9A              sbi 0x15,5
 0284 03C0              xjmp L28
 0286           L27:
 0286                   .dbline 162
 0286           ;                  else PORTC&=0xDF;//zero point indication
 0286 85B3              in R24,0x15
 0288 8F7D              andi R24,223
 028A 85BB              out 0x15,R24
 028C           L28:
 028C                   .dbline 163
 028C           ;                                current_i[count]=value;
 028C 80E0              ldi R24,<_current_i
 028E 90E0              ldi R25,>_current_i
 0290 E0914800          lds R30,_count
 0294 FF27              clr R31
 0296 EE0F              lsl R30
 0298 FF1F              rol R31
 029A E80F              add R30,R24
 029C F91F              adc R31,R25
 029E 20905800          lds R2,_value
 02A2 30905900          lds R3,_value+1
 02A6 3182              std z+1,R3
 02A8 2082              std z+0,R2
 02AA                   .dbline 164
 02AA           ;                                tok_os=value;
 02AA 20905800          lds R2,_value
 02AE 30905900          lds R3,_value+1
 02B2 30925500          sts _tok_os+1,R3
 02B6 20925400          sts _tok_os,R2
 02BA                   .dbline 165
 02BA           ;                                count+=1;
 02BA 80914800          lds R24,_count
 02BE 8F5F              subi R24,255    ; addi 1
 02C0 80934800          sts _count,R24
 02C4                   .dbline 166
 02C4           ;                                if(count==20)
 02C4 8431              cpi R24,20
 02C6 09F0              breq X18
 02C8 5BC0              xjmp L29
 02CA           X18:
 02CA           X12:
 02CA                   .dbline 167
 02CA           ;                                  {
 02CA                   .dbline 168
 02CA           ;                                  tok_i=0;
 02CA 2224              clr R2
 02CC 3324              clr R3
 02CE 30920300          sts _tok_i+1,R3
 02D2 20920200          sts _tok_i,R2
 02D6                   .dbline 169
 02D6           ;                                  for(count=0;count<20;count++)
 02D6 20924800          sts _count,R2
 02DA 1AC0              xjmp L34
 02DC           L31:
 02DC                   .dbline 170
 02DC           ;                                   {
 02DC                   .dbline 171
 02DC           ;                                   tok_i=tok_i+current_i[count];
 02DC 80E0              ldi R24,<_current_i
 02DE 90E0              ldi R25,>_current_i
 02E0 E0914800          lds R30,_count
 02E4 FF27              clr R31
 02E6 EE0F              lsl R30
 02E8 FF1F              rol R31
 02EA E80F              add R30,R24
 02EC F91F              adc R31,R25
 02EE 2080              ldd R2,z+0
 02F0 3180              ldd R3,z+1
 02F2 40900200          lds R4,_tok_i
 02F6 50900300          lds R5,_tok_i+1
 02FA 420C              add R4,R2
 02FC 531C              adc R5,R3
 02FE 50920300          sts _tok_i+1,R5
 0302 40920200          sts _tok_i,R4
 0306                   .dbline 172
 0306           ;                                   }
 0306           L32:
 0306                   .dbline 169
 0306 80914800          lds R24,_count
 030A 8F5F              subi R24,255    ; addi 1
 030C 80934800          sts _count,R24
 0310           L34:
 0310                   .dbline 169
 0310 80914800          lds R24,_count
 0314 8431              cpi R24,20
 0316 10F3              brlo L31
 0318           X13:
 0318                   .dbline 173
 0318           ;                                  tok_i=tok_i/20;
 0318 24E1              ldi R18,20
 031A 30E0              ldi R19,0
 031C 00910200          lds R16,_tok_i
 0320 10910300          lds R17,_tok_i+1
 0324 0E940000          xcall div16s
 0328 10930300          sts _tok_i+1,R17
 032C 00930200          sts _tok_i,R16
 0330                   .dbline 174
 0330           ;                                  count=0;
 0330 2224              clr R2
 0332 20924800          sts _count,R2
 0336                   .dbline 175
 0336           ;                                  if(tok_i>=0) 
 0336 0030              cpi R16,0
 0338 E0E0              ldi R30,0
 033A 1E07              cpc R17,R30
 033C 24F0              brlt L35
 033E           X14:
 033E                   .dbline 176
 033E           ;                                        {
 033E                   .dbline 177
 033E           ;                                        sign_current=1;
 033E 81E0              ldi R24,1
 0340 80935000          sts _sign_current,R24
 0344                   .dbline 178
 0344           ;                                        }
 0344 0FC0              xjmp L36
 0346           L35:
 0346                   .dbline 180
 0346           ;                                       else 
 0346           ;                                        {
 0346                   .dbline 181
 0346           ;                                        sign_current=0;//sign of measured current
 0346 2224              clr R2
 0348 20925000          sts _sign_current,R2
 034C                   .dbline 182
 034C           ;                                        tok_i=-tok_i;//modul of measured current
 034C 80910200          lds R24,_tok_i
 0350 90910300          lds R25,_tok_i+1
 0354 8095              com R24
 0356 9095              com R25
 0358 8F5F              subi R24,0xFF
 035A 9F4F              sbci R25,0xFF
 035C 90930300          sts _tok_i+1,R25
 0360 80930200          sts _tok_i,R24
 0364                   .dbline 183
 0364           ;                                        }
 0364           L36:
 0364                   .dbline 184
 0364           ;                                  if(tok_i>=511) //102-1A; 153-1,5A; 204-2A; 255-2,5A; 306-3A; 358-3,5A; 409-4A, 4,5A
 0364 80910200          lds R24,_tok_i
 0368 90910300          lds R25,_tok_i+1
 036C 8F3F              cpi R24,255
 036E E1E0              ldi R30,1
 0370 9E07              cpc R25,R30
 0372 34F0              brlt L37
 0374           X15:
 0374                   .dbline 185
 0374           ;                                   {
 0374                   .dbline 186
 0374           ;                                       fault=1;
 0374 81E0              ldi R24,1
 0376 80934A00          sts _fault,R24
 037A                   .dbline 187
 037A           ;                                       PORTC&=0xE0;//switch all pulces off
 037A 85B3              in R24,0x15
 037C 807E              andi R24,224
 037E 85BB              out 0x15,R24
 0380                   .dbline 188
 0380           ;                                       }
 0380           L37:
 0380                   .dbline 189
 0380           ;                                  }
 0380           L29:
 0380                   .dbline 190
 0380           ;                                ADMUX=0x40;
 0380 80E4              ldi R24,64
 0382 87B9              out 0x7,R24
 0384                   .dbline 191
 0384           ;   break;
 0384           L9:
 0384           L10:
 0384                   .dbline 193
 0384           ;   }
 0384           ;  SEI();
 0384 7894              sei
 0386                   .dbline -2
 0386           L8:
 0386                   .dbline 0 ; func end
 0386 5991              ld R21,y+
 0388 4991              ld R20,y+
 038A 1990              ld R1,y+
 038C 1FBE              OUT 63,R1
 038E F991              ld R31,y+
 0390 E991              ld R30,y+
 0392 A991              ld R26,y+
 0394 9991              ld R25,y+
 0396 8991              ld R24,y+
 0398 3991              ld R19,y+
 039A 2991              ld R18,y+
 039C 1991              ld R17,y+
 039E 0991              ld R16,y+
 03A0 5990              ld R5,y+
 03A2 4990              ld R4,y+
 03A4 3990              ld R3,y+
 03A6 2990              ld R2,y+
 03A8 1990              ld R1,y+
 03AA 1895              reti
 03AC                   .dbend
                        .area vector(rom, abs)
                        .org 4
 0004 0C94D601          jmp _int0_isr
                        .area text(rom, con, rel)
 03AC                   .dbfile C:\COPYSI~1\ildar.c
 03AC                   .dbfunc e int0_isr _int0_isr fV
                        .even
 03AC           _int0_isr::
 03AC 2A92              st -y,R2
 03AE 3A92              st -y,R3
 03B0 4A92              st -y,R4
 03B2 5A92              st -y,R5
 03B4 0A93              st -y,R16
 03B6 1A93              st -y,R17
 03B8 2A93              st -y,R18
 03BA 3A93              st -y,R19
 03BC 8A93              st -y,R24
 03BE 9A93              st -y,R25
 03C0 2FB6              IN R2,63
 03C2 2A92              st -y,R2
 03C4                   .dbline -1
 03C4                   .dbline 198
 03C4           ; }
 03C4           ; 
 03C4           ; #pragma interrupt_handler int0_isr:iv_INT0
 03C4           ; void int0_isr(void)
 03C4           ; {
 03C4                   .dbline 199
 03C4           ; CLI();
 03C4 F894              cli
 03C6                   .dbline 200
 03C6           ; if(TCCR1B==0x00)
 03C6 2EB4              in R2,0x2e
 03C8 2220              tst R2
 03CA 09F0              breq X25
 03CC 50C0              xjmp L40
 03CE           X25:
 03CE           X19:
 03CE                   .dbline 201
 03CE           ;  {
 03CE                   .dbline 202
 03CE           ;  PORTC&=0xE0;//switch all pulces off
 03CE 85B3              in R24,0x15
 03D0 807E              andi R24,224
 03D2 85BB              out 0x15,R24
 03D4                   .dbline 203
 03D4           ;  alfa+=alfa0;
 03D4 20900200          lds R2,_alfa0
 03D8 30900300          lds R3,_alfa0+1
 03DC 40900000          lds R4,_alfa
 03E0 50900100          lds R5,_alfa+1
 03E4 420C              add R4,R2
 03E6 531C              adc R5,R3
 03E8 50920100          sts _alfa+1,R5
 03EC 40920000          sts _alfa,R4
 03F0                   .dbline 204
 03F0           ;  if(alfa<=alfamin) alfa=alfamin;//lower limit of alfa
 03F0 20900400          lds R2,_alfamin
 03F4 30900500          lds R3,_alfamin+1
 03F8 2414              cp R2,R4
 03FA 3504              cpc R3,R5
 03FC 24F0              brlt L42
 03FE           X20:
 03FE                   .dbline 204
 03FE 30920100          sts _alfa+1,R3
 0402 20920000          sts _alfa,R2
 0406           L42:
 0406                   .dbline 205
 0406           ;  if(alfa>=alfamax) alfa=alfamax;//upper limit of alfa
 0406 20900600          lds R2,_alfamax
 040A 30900700          lds R3,_alfamax+1
 040E 40900000          lds R4,_alfa
 0412 50900100          lds R5,_alfa+1
 0416 4214              cp R4,R2
 0418 5304              cpc R5,R3
 041A 24F0              brlt L44
 041C           X21:
 041C                   .dbline 205
 041C 30920100          sts _alfa+1,R3
 0420 20920000          sts _alfa,R2
 0424           L44:
 0424                   .dbline 207
 0424           ;  //-----------------------------------------
 0424           ;  if((PIND&0x40)==0x00)//start/stop
 0424 8699              sbic 0x10,6
 0426 0CC0              rjmp L46
 0428           X22:
 0428                   .dbline 208
 0428           ;     {
 0428                   .dbline 209
 0428           ;       soft_start=0;
 0428 2224              clr R2
 042A 20924C00          sts _soft_start,R2
 042E                   .dbline 210
 042E           ;       alfa=alfamax;
 042E 20900600          lds R2,_alfamax
 0432 30900700          lds R3,_alfamax+1
 0436 30920100          sts _alfa+1,R3
 043A 20920000          sts _alfa,R2
 043E                   .dbline 211
 043E           ;       }
 043E 0FC0              xjmp L47
 0440           L46:
 0440                   .dbline 213
 0440           ;       else
 0440           ;        {
 0440                   .dbline 214
 0440           ;        if(soft_start==0)
 0440 20904C00          lds R2,_soft_start
 0444 2220              tst R2
 0446 59F4              brne L48
 0448           X23:
 0448                   .dbline 215
 0448           ;         {
 0448                   .dbline 216
 0448           ;         alfa=alfa0;
 0448 20900200          lds R2,_alfa0
 044C 30900300          lds R3,_alfa0+1
 0450 30920100          sts _alfa+1,R3
 0454 20920000          sts _alfa,R2
 0458                   .dbline 217
 0458           ;         soft_start=1;
 0458 81E0              ldi R24,1
 045A 80934C00          sts _soft_start,R24
 045E                   .dbline 218
 045E           ;         }
 045E           L48:
 045E                   .dbline 219
 045E           ;        }
 045E           L47:
 045E                   .dbline 221
 045E           ;  //-----------------------------------------  
 045E           ;  OCR1A=alfa;
 045E 20900000          lds R2,_alfa
 0462 30900100          lds R3,_alfa+1
 0466 3BBC              out 0x2b,R3
 0468 2ABC              out 0x2a,R2
 046A                   .dbline 222
 046A           ;  TCCR1B=0x03;//start T1 for alfa counting
 046A 83E0              ldi R24,3
 046C 8EBD              out 0x2e,R24
 046E                   .dbline 223
 046E           ;  }
 046E           L40:
 046E                   .dbline 224
 046E           ; cnt_i+=1;
 046E 80915100          lds R24,_cnt_i
 0472 8F5F              subi R24,255    ; addi 1
 0474 80935100          sts _cnt_i,R24
 0478                   .dbline 225
 0478           ; if(cnt_i==100)//reboot time ~1 sec.
 0478 8436              cpi R24,100
 047A 91F4              brne L50
 047C           X24:
 047C                   .dbline 226
 047C           ;  {
 047C                   .dbline 227
 047C           ;  cnt_i=0;
 047C 2224              clr R2
 047E 20925100          sts _cnt_i,R2
 0482                   .dbline 228
 0482           ;  alfa_i=alfa/7;
 0482 27E0              ldi R18,7
 0484 30E0              ldi R19,0
 0486 00910000          lds R16,_alfa
 048A 10910100          lds R17,_alfa+1
 048E 0E940000          xcall div16s
 0492 10935300          sts _alfa_i+1,R17
 0496 00935200          sts _alfa_i,R16
 049A                   .dbline 229
 049A           ;  flag_2=1;
 049A 81E0              ldi R24,1
 049C 80935500          sts _flag_2,R24
 04A0                   .dbline 231
 04A0           ; // flag_1=1;//flag for start transmition
 04A0           ;  }
 04A0           L50:
 04A0                   .dbline 232
 04A0           ; alfa=0;//reset alfa gain
 04A0 2224              clr R2
 04A2 3324              clr R3
 04A4 30920100          sts _alfa+1,R3
 04A8 20920000          sts _alfa,R2
 04AC                   .dbline 233
 04AC           ; SEI();
 04AC 7894              sei
 04AE                   .dbline -2
 04AE           L39:
 04AE                   .dbline 0 ; func end
 04AE 2990              ld R2,y+
 04B0 2FBE              OUT 63,R2
 04B2 9991              ld R25,y+
 04B4 8991              ld R24,y+
 04B6 3991              ld R19,y+
 04B8 2991              ld R18,y+
 04BA 1991              ld R17,y+
 04BC 0991              ld R16,y+
 04BE 5990              ld R5,y+
 04C0 4990              ld R4,y+
 04C2 3990              ld R3,y+
 04C4 2990              ld R2,y+
 04C6 1895              reti
 04C8                   .dbend
                        .area vector(rom, abs)
                        .org 8
 0008 0C946402          jmp _int1_isr
                        .area text(rom, con, rel)
 04C8                   .dbfile C:\COPYSI~1\ildar.c
 04C8                   .dbfunc e int1_isr _int1_isr fV
                        .even
 04C8           _int1_isr::
 04C8 2A92              st -y,R2
 04CA 8A93              st -y,R24
 04CC 2FB6              IN R2,63
 04CE 2A92              st -y,R2
 04D0                   .dbline -1
 04D0                   .dbline 238
 04D0           ; }
 04D0           ; 
 04D0           ; #pragma interrupt_handler int1_isr:iv_INT1
 04D0           ; void int1_isr(void)
 04D0           ; {
 04D0                   .dbline 239
 04D0           ; CLI();
 04D0 F894              cli
 04D2                   .dbline 240
 04D2           ; if((PIND&0x08)==0x08)//zero-current
 04D2 80B3              in R24,0x10
 04D4 8870              andi R24,8
 04D6 8830              cpi R24,8
 04D8 39F4              brne L53
 04DA           X26:
 04DA                   .dbline 241
 04DA           ;     {
 04DA                   .dbline 242
 04DA           ;       TCCR2=0x06;//start T2 for 5ms pause counting
 04DA 86E0              ldi R24,6
 04DC 85BD              out 0x25,R24
 04DE                   .dbline 243
 04DE           ;       PORTD|=0x80;
 04DE 979A              sbi 0x12,7
 04E0                   .dbline 244
 04E0           ;       pause=1;
 04E0 81E0              ldi R24,1
 04E2 80934600          sts _pause,R24
 04E6                   .dbline 245
 04E6           ;       }
 04E6 05C0              xjmp L54
 04E8           L53:
 04E8                   .dbline 247
 04E8           ; else//current is not zero
 04E8           ;       {
 04E8                   .dbline 248
 04E8           ;       TCCR2=0x00;//stop T2
 04E8 2224              clr R2
 04EA 25BC              out 0x25,R2
 04EC                   .dbline 249
 04EC           ;       TCNT2=0x00;
 04EC 24BC              out 0x24,R2
 04EE                   .dbline 250
 04EE           ;       pause=0;
 04EE 20924600          sts _pause,R2
 04F2                   .dbline 251
 04F2           ;       }
 04F2           L54:
 04F2                   .dbline 252
 04F2           ; SEI();
 04F2 7894              sei
 04F4                   .dbline -2
 04F4           L52:
 04F4                   .dbline 0 ; func end
 04F4 2990              ld R2,y+
 04F6 2FBE              OUT 63,R2
 04F8 8991              ld R24,y+
 04FA 2990              ld R2,y+
 04FC 1895              reti
 04FE                   .dbend
                        .area vector(rom, abs)
                        .org 40
 0028 0C947F02          jmp _timer0_comp_isr
                        .area text(rom, con, rel)
 04FE                   .dbfile C:\COPYSI~1\ildar.c
 04FE                   .dbfunc e timer0_comp_isr _timer0_comp_isr fV
                        .even
 04FE           _timer0_comp_isr::
 04FE 0A92              st -y,R0
 0500 1A92              st -y,R1
 0502 2A92              st -y,R2
 0504 3A92              st -y,R3
 0506 4A92              st -y,R4
 0508 5A92              st -y,R5
 050A 6A92              st -y,R6
 050C 7A92              st -y,R7
 050E 8A92              st -y,R8
 0510 9A92              st -y,R9
 0512 0A93              st -y,R16
 0514 1A93              st -y,R17
 0516 2A93              st -y,R18
 0518 3A93              st -y,R19
 051A 8A93              st -y,R24
 051C 9A93              st -y,R25
 051E AA93              st -y,R26
 0520 BA93              st -y,R27
 0522 EA93              st -y,R30
 0524 FA93              st -y,R31
 0526 0FB6              IN R0,63
 0528 0A92              st -y,R0
 052A 0E940000          xcall push_xgsetF0FC
 052E                   .dbline -1
 052E                   .dbline 257
 052E           ; }
 052E           ; 
 052E           ; #pragma interrupt_handler timer0_comp_isr:iv_TIM0_COMP
 052E           ; void timer0_comp_isr(void)
 052E           ; {
 052E                   .dbline 258
 052E           ;  CLI();
 052E F894              cli
 0530                   .dbline 259
 0530           ;  if(((PINB&0x40)==0x40)&&((PINB&0x80)==0x80))//mode of output regulator
 0530 86B3              in R24,0x16
 0532 8074              andi R24,64
 0534 8034              cpi R24,64
 0536 09F0              breq X110
 0538 5BC0              xjmp L56
 053A           X110:
 053A           X27:
 053A 86B3              in R24,0x16
 053C 8078              andi R24,128
 053E 8038              cpi R24,128
 0540 09F0              breq X111
 0542 56C0              xjmp L56
 0544           X111:
 0544           X28:
 0544                   .dbline 260
 0544           ;  {
 0544                   .dbline 261
 0544           ;  Urn=Uvh<<1;
 0544 40902000          lds R4,_Uvh+2
 0548 50902100          lds R5,_Uvh+2+1
 054C 20901E00          lds R2,_Uvh
 0550 30901F00          lds R3,_Uvh+1
 0554 220C              lsl R2
 0556 331C              rol R3
 0558 441C              rol R4
 055A 551C              rol R5
 055C 30922300          sts _Urn+1,R3
 0560 20922200          sts _Urn,R2
 0564 50922500          sts _Urn+2+1,R5
 0568 40922400          sts _Urn+2,R4
 056C                   .dbline 262
 056C           ;  if(Urn>=2047) {Urn=2047;}
 056C 4FEF              ldi R20,255
 056E 57E0              ldi R21,7
 0570 60E0              ldi R22,0
 0572 70E0              ldi R23,0
 0574 2416              cp R2,R20
 0576 3506              cpc R3,R21
 0578 4606              cpc R4,R22
 057A 5706              cpc R5,R23
 057C 64F0              brlt L58
 057E           X29:
 057E                   .dbline 262
 057E                   .dbline 262
 057E 8FEF              ldi R24,255
 0580 80932200          sts _Urn+0,R24
 0584 87E0              ldi R24,7
 0586 80932300          sts _Urn+1,R24
 058A 80E0              ldi R24,0
 058C 80932400          sts _Urn+2,R24
 0590 80932500          sts _Urn+3,R24
 0594                   .dbline 262
 0594 1CC0              xjmp L59
 0596           L58:
 0596                   .dbline 263
 0596           ;  else if(Urn<-2047){ Urn=-2047;}
 0596 41E0              ldi R20,1
 0598 58EF              ldi R21,248
 059A 6FEF              ldi R22,255
 059C 7FEF              ldi R23,255
 059E 40902400          lds R4,_Urn+2
 05A2 50902500          lds R5,_Urn+2+1
 05A6 20902200          lds R2,_Urn
 05AA 30902300          lds R3,_Urn+1
 05AE 2416              cp R2,R20
 05B0 3506              cpc R3,R21
 05B2 4606              cpc R4,R22
 05B4 5706              cpc R5,R23
 05B6 5CF4              brge L60
 05B8           X30:
 05B8                   .dbline 263
 05B8                   .dbline 263
 05B8 81E0              ldi R24,1
 05BA 80932200          sts _Urn+0,R24
 05BE 88EF              ldi R24,248
 05C0 80932300          sts _Urn+1,R24
 05C4 8FEF              ldi R24,255
 05C6 80932400          sts _Urn+2,R24
 05CA 80932500          sts _Urn+3,R24
 05CE                   .dbline 263
 05CE           L60:
 05CE           L59:
 05CE                   .dbline 264
 05CE           ;  Urt=Urn;
 05CE 40902400          lds R4,_Urn+2
 05D2 50902500          lds R5,_Urn+2+1
 05D6 20902200          lds R2,_Urn
 05DA 30902300          lds R3,_Urn+1
 05DE 30922700          sts _Urt+1,R3
 05E2 20922600          sts _Urt,R2
 05E6 50922900          sts _Urt+2+1,R5
 05EA 40922800          sts _Urt+2,R4
 05EE                   .dbline 265
 05EE           ;  }
 05EE 83C7              xjmp L57
 05F0           L56:
 05F0                   .dbline 267
 05F0           ;  else  //mode of input regulator
 05F0           ;  {
 05F0                   .dbline 268
 05F0           ;  switch(fkvant)
 05F0 20906200          lds R2,_fkvant
 05F4 30906300          lds R3,_fkvant+1
 05F8 C101              movw R24,R2
 05FA 8130              cpi R24,1
 05FC E0E0              ldi R30,0
 05FE 9E07              cpc R25,R30
 0600 29F1              breq L64
 0602           X31:
 0602 8230              cpi R24,2
 0604 E0E0              ldi R30,0
 0606 9E07              cpc R25,R30
 0608 31F1              breq L65
 060A           X32:
 060A 8330              cpi R24,3
 060C E0E0              ldi R30,0
 060E 9E07              cpc R25,R30
 0610 39F1              breq L66
 0612           X33:
 0612 8430              cpi R24,4
 0614 E0E0              ldi R30,0
 0616 9E07              cpc R25,R30
 0618 41F1              breq L67
 061A           X34:
 061A 8530              cpi R24,5
 061C E0E0              ldi R30,0
 061E 9E07              cpc R25,R30
 0620 49F1              breq L68
 0622           X35:
 0622 8630              cpi R24,6
 0624 E0E0              ldi R30,0
 0626 9E07              cpc R25,R30
 0628 51F1              breq L69
 062A           X36:
 062A 8730              cpi R24,7
 062C E0E0              ldi R30,0
 062E 9E07              cpc R25,R30
 0630 59F1              breq L70
 0632           X37:
 0632 8830              cpi R24,8
 0634 E0E0              ldi R30,0
 0636 9E07              cpc R25,R30
 0638 61F1              breq L71
 063A           X38:
 063A 8930              cpi R24,9
 063C E0E0              ldi R30,0
 063E 9E07              cpc R25,R30
 0640 69F1              breq L72
 0642           X39:
 0642 8A30              cpi R24,10
 0644 E0E0              ldi R30,0
 0646 9E07              cpc R25,R30
 0648 71F1              breq L73
 064A           X40:
 064A 31C0              xjmp L62
 064C           L64:
 064C                   .dbline 270
 064C           ;  {
 064C           ;  case 1: {OCR0=0x7D; TCCR0=0x8B;} break;//kdel=64, 1ms
 064C                   .dbline 270
 064C 8DE7              ldi R24,125
 064E 8CBF              out 0x3c,R24
 0650                   .dbline 270
 0650 8BE8              ldi R24,139
 0652 83BF              out 0x33,R24
 0654                   .dbline 270
 0654                   .dbline 270
 0654 2CC0              xjmp L63
 0656           L65:
 0656                   .dbline 271
 0656           ;  case 2: {OCR0=0x65; TCCR0=0x8B;} break;//kdel=64, 2ms
 0656                   .dbline 271
 0656 85E6              ldi R24,101
 0658 8CBF              out 0x3c,R24
 065A                   .dbline 271
 065A 8BE8              ldi R24,139
 065C 83BF              out 0x33,R24
 065E                   .dbline 271
 065E                   .dbline 271
 065E 27C0              xjmp L63
 0660           L66:
 0660                   .dbline 272
 0660           ;  case 3: {OCR0=0xA1; TCCR0=0x8C;} break;//kdel=256, 3ms
 0660                   .dbline 272
 0660 81EA              ldi R24,161
 0662 8CBF              out 0x3c,R24
 0664                   .dbline 272
 0664 8CE8              ldi R24,140
 0666 83BF              out 0x33,R24
 0668                   .dbline 272
 0668                   .dbline 272
 0668 22C0              xjmp L63
 066A           L67:
 066A                   .dbline 273
 066A           ;  case 4: {OCR0=0x82; TCCR0=0x8C;} break;//kdel=256, 4ms
 066A                   .dbline 273
 066A 82E8              ldi R24,130
 066C 8CBF              out 0x3c,R24
 066E                   .dbline 273
 066E 8CE8              ldi R24,140
 0670 83BF              out 0x33,R24
 0672                   .dbline 273
 0672                   .dbline 273
 0672 1DC0              xjmp L63
 0674           L68:
 0674                   .dbline 274
 0674           ;  case 5: {OCR0=0x62; TCCR0=0x8C;} break;//kdel=256, 5ms
 0674                   .dbline 274
 0674 82E6              ldi R24,98
 0676 8CBF              out 0x3c,R24
 0678                   .dbline 274
 0678 8CE8              ldi R24,140
 067A 83BF              out 0x33,R24
 067C                   .dbline 274
 067C                   .dbline 274
 067C 18C0              xjmp L63
 067E           L69:
 067E                   .dbline 275
 067E           ;  case 6: {OCR0=0x43; TCCR0=0x8C;} break;//kdel=256, 6ms
 067E                   .dbline 275
 067E 83E4              ldi R24,67
 0680 8CBF              out 0x3c,R24
 0682                   .dbline 275
 0682 8CE8              ldi R24,140
 0684 83BF              out 0x33,R24
 0686                   .dbline 275
 0686                   .dbline 275
 0686 13C0              xjmp L63
 0688           L70:
 0688                   .dbline 276
 0688           ;  case 7: {OCR0=0x24; TCCR0=0x8C;} break;//kdel=256, 7ms
 0688                   .dbline 276
 0688 84E2              ldi R24,36
 068A 8CBF              out 0x3c,R24
 068C                   .dbline 276
 068C 8CE8              ldi R24,140
 068E 83BF              out 0x33,R24
 0690                   .dbline 276
 0690                   .dbline 276
 0690 0EC0              xjmp L63
 0692           L71:
 0692                   .dbline 277
 0692           ;  case 8: {OCR0=0x05; TCCR0=0x8C;} break;//kdel=256, 8ms
 0692                   .dbline 277
 0692 85E0              ldi R24,5
 0694 8CBF              out 0x3c,R24
 0696                   .dbline 277
 0696 8CE8              ldi R24,140
 0698 83BF              out 0x33,R24
 069A                   .dbline 277
 069A                   .dbline 277
 069A 09C0              xjmp L63
 069C           L72:
 069C                   .dbline 278
 069C           ;  case 9: {OCR0=0xB8; TCCR0=0x8D;} break;//kdel=1024, 9ms
 069C                   .dbline 278
 069C 88EB              ldi R24,184
 069E 8CBF              out 0x3c,R24
 06A0                   .dbline 278
 06A0 8DE8              ldi R24,141
 06A2 83BF              out 0x33,R24
 06A4                   .dbline 278
 06A4                   .dbline 278
 06A4 04C0              xjmp L63
 06A6           L73:
 06A6                   .dbline 279
 06A6           ;  case 10: {OCR0=0xB0; TCCR0=0x8D;} break;//kdel=1024, 10ms
 06A6                   .dbline 279
 06A6 80EB              ldi R24,176
 06A8 8CBF              out 0x3c,R24
 06AA                   .dbline 279
 06AA 8DE8              ldi R24,141
 06AC 83BF              out 0x33,R24
 06AE                   .dbline 279
 06AE                   .dbline 279
 06AE           L62:
 06AE           L63:
 06AE                   .dbline 282
 06AE           ;  }
 06AE           ;  //-------------------Speed regulator---------------
 06AE           ;  if((PINB&0x10)==0x10)
 06AE 86B3              in R24,0x16
 06B0 8071              andi R24,16
 06B2 8031              cpi R24,16
 06B4 89F4              brne L74
 06B6           X41:
 06B6                   .dbline 283
 06B6           ;  {
 06B6                   .dbline 284
 06B6           ;   Urn=Uvh;
 06B6 40902000          lds R4,_Uvh+2
 06BA 50902100          lds R5,_Uvh+2+1
 06BE 20901E00          lds R2,_Uvh
 06C2 30901F00          lds R3,_Uvh+1
 06C6 30922300          sts _Urn+1,R3
 06CA 20922200          sts _Urn,R2
 06CE 50922500          sts _Urn+2+1,R5
 06D2 40922400          sts _Urn+2,R4
 06D6                   .dbline 285
 06D6           ;  }
 06D6 39C4              xjmp L75
 06D8           L74:
 06D8                   .dbline 287
 06D8           ;  else
 06D8           ;  {
 06D8                   .dbline 288
 06D8           ;  oshibka_v=Uvh;
 06D8 40902000          lds R4,_Uvh+2
 06DC 50902100          lds R5,_Uvh+2+1
 06E0 20901E00          lds R2,_Uvh
 06E4 30901F00          lds R3,_Uvh+1
 06E8 30920F00          sts _oshibka_v+1,R3
 06EC 20920E00          sts _oshibka_v,R2
 06F0 50921100          sts _oshibka_v+2+1,R5
 06F4 40921000          sts _oshibka_v+2,R4
 06F8                   .dbline 289
 06F8           ;  if(kos_v==0)
 06F8 20906A00          lds R2,_kos_v
 06FC 30906B00          lds R3,_kos_v+1
 0700 2220              tst R2
 0702 99F4              brne L76
 0704 3320              tst R3
 0706 89F4              brne L76
 0708           X42:
 0708                   .dbline 290
 0708           ;  {Urn=Uvh;}
 0708                   .dbline 290
 0708 40902000          lds R4,_Uvh+2
 070C 50902100          lds R5,_Uvh+2+1
 0710 20901E00          lds R2,_Uvh
 0714 30901F00          lds R3,_Uvh+1
 0718 30922300          sts _Urn+1,R3
 071C 20922200          sts _Urn,R2
 0720 50922500          sts _Urn+2+1,R5
 0724 40922400          sts _Urn+2,R4
 0728                   .dbline 290
 0728 10C4              xjmp L77
 072A           L76:
 072A                   .dbline 291
 072A           ;  else { 
 072A                   .dbline 292
 072A           ;  if(kos_v==1) volt_os=volt_os;
 072A 80916A00          lds R24,_kos_v
 072E 90916B00          lds R25,_kos_v+1
 0732 8130              cpi R24,1
 0734 E0E0              ldi R30,0
 0736 9E07              cpc R25,R30
 0738 49F4              brne L78
 073A           X43:
 073A                   .dbline 292
 073A 20905600          lds R2,_volt_os
 073E 30905700          lds R3,_volt_os+1
 0742 30925700          sts _volt_os+1,R3
 0746 20925600          sts _volt_os,R2
 074A 96C0              xjmp L79
 074C           L78:
 074C                   .dbline 293
 074C           ;  else if(kos_v==2) volt_os=volt_os>>1;
 074C 80916A00          lds R24,_kos_v
 0750 90916B00          lds R25,_kos_v+1
 0754 8230              cpi R24,2
 0756 E0E0              ldi R30,0
 0758 9E07              cpc R25,R30
 075A 59F4              brne L80
 075C           X44:
 075C                   .dbline 293
 075C 20905600          lds R2,_volt_os
 0760 30905700          lds R3,_volt_os+1
 0764 3594              asr R3
 0766 2794              ror R2
 0768 30925700          sts _volt_os+1,R3
 076C 20925600          sts _volt_os,R2
 0770 83C0              xjmp L81
 0772           L80:
 0772                   .dbline 294
 0772           ;  else if(kos_v==4) volt_os=volt_os>>2;
 0772 80916A00          lds R24,_kos_v
 0776 90916B00          lds R25,_kos_v+1
 077A 8430              cpi R24,4
 077C E0E0              ldi R30,0
 077E 9E07              cpc R25,R30
 0780 69F4              brne L82
 0782           X45:
 0782                   .dbline 294
 0782 20905600          lds R2,_volt_os
 0786 30905700          lds R3,_volt_os+1
 078A 3594              asr R3
 078C 2794              ror R2
 078E 3594              asr R3
 0790 2794              ror R2
 0792 30925700          sts _volt_os+1,R3
 0796 20925600          sts _volt_os,R2
 079A 6EC0              xjmp L83
 079C           L82:
 079C                   .dbline 295
 079C           ;  else if(kos_v==8) volt_os=volt_os>>3;
 079C 80916A00          lds R24,_kos_v
 07A0 90916B00          lds R25,_kos_v+1
 07A4 8830              cpi R24,8
 07A6 E0E0              ldi R30,0
 07A8 9E07              cpc R25,R30
 07AA 79F4              brne L84
 07AC           X46:
 07AC                   .dbline 295
 07AC 20905600          lds R2,_volt_os
 07B0 30905700          lds R3,_volt_os+1
 07B4 3594              asr R3
 07B6 2794              ror R2
 07B8 3594              asr R3
 07BA 2794              ror R2
 07BC 3594              asr R3
 07BE 2794              ror R2
 07C0 30925700          sts _volt_os+1,R3
 07C4 20925600          sts _volt_os,R2
 07C8 57C0              xjmp L85
 07CA           L84:
 07CA                   .dbline 296
 07CA           ;  else if(kos_v==16) volt_os=volt_os>>4;
 07CA 80916A00          lds R24,_kos_v
 07CE 90916B00          lds R25,_kos_v+1
 07D2 8031              cpi R24,16
 07D4 E0E0              ldi R30,0
 07D6 9E07              cpc R25,R30
 07D8 89F4              brne L86
 07DA           X47:
 07DA                   .dbline 296
 07DA 20905600          lds R2,_volt_os
 07DE 30905700          lds R3,_volt_os+1
 07E2 3594              asr R3
 07E4 2794              ror R2
 07E6 3594              asr R3
 07E8 2794              ror R2
 07EA 3594              asr R3
 07EC 2794              ror R2
 07EE 3594              asr R3
 07F0 2794              ror R2
 07F2 30925700          sts _volt_os+1,R3
 07F6 20925600          sts _volt_os,R2
 07FA 3EC0              xjmp L87
 07FC           L86:
 07FC                   .dbline 297
 07FC           ;  else if(kos_v==32) volt_os=volt_os>>5;
 07FC 80916A00          lds R24,_kos_v
 0800 90916B00          lds R25,_kos_v+1
 0804 8032              cpi R24,32
 0806 E0E0              ldi R30,0
 0808 9E07              cpc R25,R30
 080A 69F4              brne L88
 080C           X48:
 080C                   .dbline 297
 080C 25E0              ldi R18,5
 080E 30E0              ldi R19,0
 0810 00915600          lds R16,_volt_os
 0814 10915700          lds R17,_volt_os+1
 0818 0E940000          xcall asr16
 081C 10935700          sts _volt_os+1,R17
 0820 00935600          sts _volt_os,R16
 0824 29C0              xjmp L89
 0826           L88:
 0826                   .dbline 298
 0826           ;  else if(kos_v==64) volt_os=volt_os>>6;
 0826 80916A00          lds R24,_kos_v
 082A 90916B00          lds R25,_kos_v+1
 082E 8034              cpi R24,64
 0830 E0E0              ldi R30,0
 0832 9E07              cpc R25,R30
 0834 69F4              brne L90
 0836           X49:
 0836                   .dbline 298
 0836 26E0              ldi R18,6
 0838 30E0              ldi R19,0
 083A 00915600          lds R16,_volt_os
 083E 10915700          lds R17,_volt_os+1
 0842 0E940000          xcall asr16
 0846 10935700          sts _volt_os+1,R17
 084A 00935600          sts _volt_os,R16
 084E 14C0              xjmp L91
 0850           L90:
 0850                   .dbline 299
 0850           ;  else if(kos_v==128) volt_os=volt_os>>7;
 0850 80916A00          lds R24,_kos_v
 0854 90916B00          lds R25,_kos_v+1
 0858 8038              cpi R24,128
 085A E0E0              ldi R30,0
 085C 9E07              cpc R25,R30
 085E 61F4              brne L92
 0860           X50:
 0860                   .dbline 299
 0860 27E0              ldi R18,7
 0862 30E0              ldi R19,0
 0864 00915600          lds R16,_volt_os
 0868 10915700          lds R17,_volt_os+1
 086C 0E940000          xcall asr16
 0870 10935700          sts _volt_os+1,R17
 0874 00935600          sts _volt_os,R16
 0878           L92:
 0878           L91:
 0878           L89:
 0878           L87:
 0878           L85:
 0878           L83:
 0878           L81:
 0878           L79:
 0878                   .dbline 300
 0878           ;  oshibka_v-=volt_os;
 0878 20905600          lds R2,_volt_os
 087C 30905700          lds R3,_volt_os+1
 0880 4424              clr R4
 0882 37FC              sbrc R3,7
 0884 4094              com R4
 0886 5524              clr R5
 0888 47FC              sbrc R4,7
 088A 5094              com R5
 088C 80901000          lds R8,_oshibka_v+2
 0890 90901100          lds R9,_oshibka_v+2+1
 0894 60900E00          lds R6,_oshibka_v
 0898 70900F00          lds R7,_oshibka_v+1
 089C 6218              sub R6,R2
 089E 7308              sbc R7,R3
 08A0 8408              sbc R8,R4
 08A2 9508              sbc R9,R5
 08A4 70920F00          sts _oshibka_v+1,R7
 08A8 60920E00          sts _oshibka_v,R6
 08AC 90921100          sts _oshibka_v+2+1,R9
 08B0 80921000          sts _oshibka_v+2,R8
 08B4                   .dbline 301
 08B4           ;  if(kprop_v==1) Uv_p=oshibka_v;
 08B4 80915E00          lds R24,_kprop_v
 08B8 90915F00          lds R25,_kprop_v+1
 08BC 8130              cpi R24,1
 08BE E0E0              ldi R30,0
 08C0 9E07              cpc R25,R30
 08C2 59F4              brne L94
 08C4           X51:
 08C4                   .dbline 301
 08C4 1301              movw R2,R6
 08C6 2401              movw R4,R8
 08C8 30923F00          sts _Uv_p+1,R3
 08CC 20923E00          sts _Uv_p,R2
 08D0 50924100          sts _Uv_p+2+1,R5
 08D4 40924000          sts _Uv_p+2,R4
 08D8 D0C0              xjmp L95
 08DA           L94:
 08DA                   .dbline 302
 08DA           ;  else if(kprop_v==2) Uv_p=oshibka_v<<1;
 08DA 80915E00          lds R24,_kprop_v
 08DE 90915F00          lds R25,_kprop_v+1
 08E2 8230              cpi R24,2
 08E4 E0E0              ldi R30,0
 08E6 9E07              cpc R25,R30
 08E8 A9F4              brne L96
 08EA           X52:
 08EA                   .dbline 302
 08EA 40901000          lds R4,_oshibka_v+2
 08EE 50901100          lds R5,_oshibka_v+2+1
 08F2 20900E00          lds R2,_oshibka_v
 08F6 30900F00          lds R3,_oshibka_v+1
 08FA 220C              lsl R2
 08FC 331C              rol R3
 08FE 441C              rol R4
 0900 551C              rol R5
 0902 30923F00          sts _Uv_p+1,R3
 0906 20923E00          sts _Uv_p,R2
 090A 50924100          sts _Uv_p+2+1,R5
 090E 40924000          sts _Uv_p+2,R4
 0912 B3C0              xjmp L97
 0914           L96:
 0914                   .dbline 303
 0914           ;  else if(kprop_v==4) Uv_p=oshibka_v<<2;
 0914 80915E00          lds R24,_kprop_v
 0918 90915F00          lds R25,_kprop_v+1
 091C 8430              cpi R24,4
 091E E0E0              ldi R30,0
 0920 9E07              cpc R25,R30
 0922 B1F4              brne L98
 0924           X53:
 0924                   .dbline 303
 0924 82E0              ldi R24,2
 0926 90E0              ldi R25,0
 0928 20911000          lds R18,_oshibka_v+2
 092C 30911100          lds R19,_oshibka_v+2+1
 0930 00910E00          lds R16,_oshibka_v
 0934 10910F00          lds R17,_oshibka_v+1
 0938 8A93              st -y,R24
 093A 0E940000          xcall lsl32
 093E 10933F00          sts _Uv_p+1,R17
 0942 00933E00          sts _Uv_p,R16
 0946 30934100          sts _Uv_p+2+1,R19
 094A 20934000          sts _Uv_p+2,R18
 094E 95C0              xjmp L99
 0950           L98:
 0950                   .dbline 304
 0950           ;  else if(kprop_v==8) Uv_p=oshibka_v<<3;
 0950 80915E00          lds R24,_kprop_v
 0954 90915F00          lds R25,_kprop_v+1
 0958 8830              cpi R24,8
 095A E0E0              ldi R30,0
 095C 9E07              cpc R25,R30
 095E B1F4              brne L100
 0960           X54:
 0960                   .dbline 304
 0960 83E0              ldi R24,3
 0962 90E0              ldi R25,0
 0964 20911000          lds R18,_oshibka_v+2
 0968 30911100          lds R19,_oshibka_v+2+1
 096C 00910E00          lds R16,_oshibka_v
 0970 10910F00          lds R17,_oshibka_v+1
 0974 8A93              st -y,R24
 0976 0E940000          xcall lsl32
 097A 10933F00          sts _Uv_p+1,R17
 097E 00933E00          sts _Uv_p,R16
 0982 30934100          sts _Uv_p+2+1,R19
 0986 20934000          sts _Uv_p+2,R18
 098A 77C0              xjmp L101
 098C           L100:
 098C                   .dbline 305
 098C           ;  else if(kprop_v==16) Uv_p=oshibka_v<<4;
 098C 80915E00          lds R24,_kprop_v
 0990 90915F00          lds R25,_kprop_v+1
 0994 8031              cpi R24,16
 0996 E0E0              ldi R30,0
 0998 9E07              cpc R25,R30
 099A B1F4              brne L102
 099C           X55:
 099C                   .dbline 305
 099C 84E0              ldi R24,4
 099E 90E0              ldi R25,0
 09A0 20911000          lds R18,_oshibka_v+2
 09A4 30911100          lds R19,_oshibka_v+2+1
 09A8 00910E00          lds R16,_oshibka_v
 09AC 10910F00          lds R17,_oshibka_v+1
 09B0 8A93              st -y,R24
 09B2 0E940000          xcall lsl32
 09B6 10933F00          sts _Uv_p+1,R17
 09BA 00933E00          sts _Uv_p,R16
 09BE 30934100          sts _Uv_p+2+1,R19
 09C2 20934000          sts _Uv_p+2,R18
 09C6 59C0              xjmp L103
 09C8           L102:
 09C8                   .dbline 306
 09C8           ;  else if(kprop_v==32) Uv_p=oshibka_v<<5;
 09C8 80915E00          lds R24,_kprop_v
 09CC 90915F00          lds R25,_kprop_v+1
 09D0 8032              cpi R24,32
 09D2 E0E0              ldi R30,0
 09D4 9E07              cpc R25,R30
 09D6 B1F4              brne L104
 09D8           X56:
 09D8                   .dbline 306
 09D8 85E0              ldi R24,5
 09DA 90E0              ldi R25,0
 09DC 20911000          lds R18,_oshibka_v+2
 09E0 30911100          lds R19,_oshibka_v+2+1
 09E4 00910E00          lds R16,_oshibka_v
 09E8 10910F00          lds R17,_oshibka_v+1
 09EC 8A93              st -y,R24
 09EE 0E940000          xcall lsl32
 09F2 10933F00          sts _Uv_p+1,R17
 09F6 00933E00          sts _Uv_p,R16
 09FA 30934100          sts _Uv_p+2+1,R19
 09FE 20934000          sts _Uv_p+2,R18
 0A02 3BC0              xjmp L105
 0A04           L104:
 0A04                   .dbline 307
 0A04           ;  else if(kprop_v==64) Uv_p=oshibka_v<<6;
 0A04 80915E00          lds R24,_kprop_v
 0A08 90915F00          lds R25,_kprop_v+1
 0A0C 8034              cpi R24,64
 0A0E E0E0              ldi R30,0
 0A10 9E07              cpc R25,R30
 0A12 B1F4              brne L106
 0A14           X57:
 0A14                   .dbline 307
 0A14 86E0              ldi R24,6
 0A16 90E0              ldi R25,0
 0A18 20911000          lds R18,_oshibka_v+2
 0A1C 30911100          lds R19,_oshibka_v+2+1
 0A20 00910E00          lds R16,_oshibka_v
 0A24 10910F00          lds R17,_oshibka_v+1
 0A28 8A93              st -y,R24
 0A2A 0E940000          xcall lsl32
 0A2E 10933F00          sts _Uv_p+1,R17
 0A32 00933E00          sts _Uv_p,R16
 0A36 30934100          sts _Uv_p+2+1,R19
 0A3A 20934000          sts _Uv_p+2,R18
 0A3E 1DC0              xjmp L107
 0A40           L106:
 0A40                   .dbline 308
 0A40           ;  else if(kprop_v==128) Uv_p=oshibka_v<<7;
 0A40 80915E00          lds R24,_kprop_v
 0A44 90915F00          lds R25,_kprop_v+1
 0A48 8038              cpi R24,128
 0A4A E0E0              ldi R30,0
 0A4C 9E07              cpc R25,R30
 0A4E A9F4              brne L108
 0A50           X58:
 0A50                   .dbline 308
 0A50 87E0              ldi R24,7
 0A52 90E0              ldi R25,0
 0A54 20911000          lds R18,_oshibka_v+2
 0A58 30911100          lds R19,_oshibka_v+2+1
 0A5C 00910E00          lds R16,_oshibka_v
 0A60 10910F00          lds R17,_oshibka_v+1
 0A64 8A93              st -y,R24
 0A66 0E940000          xcall lsl32
 0A6A 10933F00          sts _Uv_p+1,R17
 0A6E 00933E00          sts _Uv_p,R16
 0A72 30934100          sts _Uv_p+2+1,R19
 0A76 20934000          sts _Uv_p+2,R18
 0A7A           L108:
 0A7A           L107:
 0A7A           L105:
 0A7A           L103:
 0A7A           L101:
 0A7A           L99:
 0A7A           L97:
 0A7A           L95:
 0A7A                   .dbline 309
 0A7A           ;  if((PIND&0x40)==0x00)Uv_i=0;
 0A7A 8699              sbic 0x10,6
 0A7C 0AC0              rjmp L110
 0A7E           X59:
 0A7E                   .dbline 309
 0A7E 80E0              ldi R24,0
 0A80 80933A00          sts _Uv_i+0,R24
 0A84 80933B00          sts _Uv_i+1,R24
 0A88 80933C00          sts _Uv_i+2,R24
 0A8C 80933D00          sts _Uv_i+3,R24
 0A90 FBC0              xjmp L111
 0A92           L110:
 0A92                   .dbline 310
 0A92           ;  else if(tinteg_v==0) Uv_i=0;
 0A92 20906000          lds R2,_tinteg_v
 0A96 30906100          lds R3,_tinteg_v+1
 0A9A 2220              tst R2
 0A9C 61F4              brne L112
 0A9E 3320              tst R3
 0AA0 51F4              brne L112
 0AA2           X60:
 0AA2                   .dbline 310
 0AA2 80E0              ldi R24,0
 0AA4 80933A00          sts _Uv_i+0,R24
 0AA8 80933B00          sts _Uv_i+1,R24
 0AAC 80933C00          sts _Uv_i+2,R24
 0AB0 80933D00          sts _Uv_i+3,R24
 0AB4 E9C0              xjmp L113
 0AB6           L112:
 0AB6                   .dbline 311
 0AB6           ;  else if(tinteg_v==1) Uv_i=oshibka_v;
 0AB6 80916000          lds R24,_tinteg_v
 0ABA 90916100          lds R25,_tinteg_v+1
 0ABE 8130              cpi R24,1
 0AC0 E0E0              ldi R30,0
 0AC2 9E07              cpc R25,R30
 0AC4 89F4              brne L114
 0AC6           X61:
 0AC6                   .dbline 311
 0AC6 40901000          lds R4,_oshibka_v+2
 0ACA 50901100          lds R5,_oshibka_v+2+1
 0ACE 20900E00          lds R2,_oshibka_v
 0AD2 30900F00          lds R3,_oshibka_v+1
 0AD6 30923B00          sts _Uv_i+1,R3
 0ADA 20923A00          sts _Uv_i,R2
 0ADE 50923D00          sts _Uv_i+2+1,R5
 0AE2 40923C00          sts _Uv_i+2,R4
 0AE6 D0C0              xjmp L115
 0AE8           L114:
 0AE8                   .dbline 312
 0AE8           ;  else if(tinteg_v==2) Uv_i=oshibka_v>>1;
 0AE8 80916000          lds R24,_tinteg_v
 0AEC 90916100          lds R25,_tinteg_v+1
 0AF0 8230              cpi R24,2
 0AF2 E0E0              ldi R30,0
 0AF4 9E07              cpc R25,R30
 0AF6 A9F4              brne L116
 0AF8           X62:
 0AF8                   .dbline 312
 0AF8 40901000          lds R4,_oshibka_v+2
 0AFC 50901100          lds R5,_oshibka_v+2+1
 0B00 20900E00          lds R2,_oshibka_v
 0B04 30900F00          lds R3,_oshibka_v+1
 0B08 5594              asr R5
 0B0A 4794              ror R4
 0B0C 3794              ror R3
 0B0E 2794              ror R2
 0B10 30923B00          sts _Uv_i+1,R3
 0B14 20923A00          sts _Uv_i,R2
 0B18 50923D00          sts _Uv_i+2+1,R5
 0B1C 40923C00          sts _Uv_i+2,R4
 0B20 B3C0              xjmp L117
 0B22           L116:
 0B22                   .dbline 313
 0B22           ;  else if(tinteg_v==4) Uv_i=oshibka_v>>2;
 0B22 80916000          lds R24,_tinteg_v
 0B26 90916100          lds R25,_tinteg_v+1
 0B2A 8430              cpi R24,4
 0B2C E0E0              ldi R30,0
 0B2E 9E07              cpc R25,R30
 0B30 B1F4              brne L118
 0B32           X63:
 0B32                   .dbline 313
 0B32 82E0              ldi R24,2
 0B34 90E0              ldi R25,0
 0B36 20911000          lds R18,_oshibka_v+2
 0B3A 30911100          lds R19,_oshibka_v+2+1
 0B3E 00910E00          lds R16,_oshibka_v
 0B42 10910F00          lds R17,_oshibka_v+1
 0B46 8A93              st -y,R24
 0B48 0E940000          xcall asr32
 0B4C 10933B00          sts _Uv_i+1,R17
 0B50 00933A00          sts _Uv_i,R16
 0B54 30933D00          sts _Uv_i+2+1,R19
 0B58 20933C00          sts _Uv_i+2,R18
 0B5C 95C0              xjmp L119
 0B5E           L118:
 0B5E                   .dbline 314
 0B5E           ;  else if(tinteg_v==8) Uv_i=oshibka_v>>3;
 0B5E 80916000          lds R24,_tinteg_v
 0B62 90916100          lds R25,_tinteg_v+1
 0B66 8830              cpi R24,8
 0B68 E0E0              ldi R30,0
 0B6A 9E07              cpc R25,R30
 0B6C B1F4              brne L120
 0B6E           X64:
 0B6E                   .dbline 314
 0B6E 83E0              ldi R24,3
 0B70 90E0              ldi R25,0
 0B72 20911000          lds R18,_oshibka_v+2
 0B76 30911100          lds R19,_oshibka_v+2+1
 0B7A 00910E00          lds R16,_oshibka_v
 0B7E 10910F00          lds R17,_oshibka_v+1
 0B82 8A93              st -y,R24
 0B84 0E940000          xcall asr32
 0B88 10933B00          sts _Uv_i+1,R17
 0B8C 00933A00          sts _Uv_i,R16
 0B90 30933D00          sts _Uv_i+2+1,R19
 0B94 20933C00          sts _Uv_i+2,R18
 0B98 77C0              xjmp L121
 0B9A           L120:
 0B9A                   .dbline 315
 0B9A           ;  else if(tinteg_v==16) Uv_i=oshibka_v>>4;
 0B9A 80916000          lds R24,_tinteg_v
 0B9E 90916100          lds R25,_tinteg_v+1
 0BA2 8031              cpi R24,16
 0BA4 E0E0              ldi R30,0
 0BA6 9E07              cpc R25,R30
 0BA8 B1F4              brne L122
 0BAA           X65:
 0BAA                   .dbline 315
 0BAA 84E0              ldi R24,4
 0BAC 90E0              ldi R25,0
 0BAE 20911000          lds R18,_oshibka_v+2
 0BB2 30911100          lds R19,_oshibka_v+2+1
 0BB6 00910E00          lds R16,_oshibka_v
 0BBA 10910F00          lds R17,_oshibka_v+1
 0BBE 8A93              st -y,R24
 0BC0 0E940000          xcall asr32
 0BC4 10933B00          sts _Uv_i+1,R17
 0BC8 00933A00          sts _Uv_i,R16
 0BCC 30933D00          sts _Uv_i+2+1,R19
 0BD0 20933C00          sts _Uv_i+2,R18
 0BD4 59C0              xjmp L123
 0BD6           L122:
 0BD6                   .dbline 316
 0BD6           ;  else if(tinteg_v==32) Uv_i=oshibka_v>>5;
 0BD6 80916000          lds R24,_tinteg_v
 0BDA 90916100          lds R25,_tinteg_v+1
 0BDE 8032              cpi R24,32
 0BE0 E0E0              ldi R30,0
 0BE2 9E07              cpc R25,R30
 0BE4 B1F4              brne L124
 0BE6           X66:
 0BE6                   .dbline 316
 0BE6 85E0              ldi R24,5
 0BE8 90E0              ldi R25,0
 0BEA 20911000          lds R18,_oshibka_v+2
 0BEE 30911100          lds R19,_oshibka_v+2+1
 0BF2 00910E00          lds R16,_oshibka_v
 0BF6 10910F00          lds R17,_oshibka_v+1
 0BFA 8A93              st -y,R24
 0BFC 0E940000          xcall asr32
 0C00 10933B00          sts _Uv_i+1,R17
 0C04 00933A00          sts _Uv_i,R16
 0C08 30933D00          sts _Uv_i+2+1,R19
 0C0C 20933C00          sts _Uv_i+2,R18
 0C10 3BC0              xjmp L125
 0C12           L124:
 0C12                   .dbline 317
 0C12           ;  else if(tinteg_v==64) Uv_i=oshibka_v>>6;
 0C12 80916000          lds R24,_tinteg_v
 0C16 90916100          lds R25,_tinteg_v+1
 0C1A 8034              cpi R24,64
 0C1C E0E0              ldi R30,0
 0C1E 9E07              cpc R25,R30
 0C20 B1F4              brne L126
 0C22           X67:
 0C22                   .dbline 317
 0C22 86E0              ldi R24,6
 0C24 90E0              ldi R25,0
 0C26 20911000          lds R18,_oshibka_v+2
 0C2A 30911100          lds R19,_oshibka_v+2+1
 0C2E 00910E00          lds R16,_oshibka_v
 0C32 10910F00          lds R17,_oshibka_v+1
 0C36 8A93              st -y,R24
 0C38 0E940000          xcall asr32
 0C3C 10933B00          sts _Uv_i+1,R17
 0C40 00933A00          sts _Uv_i,R16
 0C44 30933D00          sts _Uv_i+2+1,R19
 0C48 20933C00          sts _Uv_i+2,R18
 0C4C 1DC0              xjmp L127
 0C4E           L126:
 0C4E                   .dbline 318
 0C4E           ;  else if(tinteg_v==128) Uv_i=oshibka_v>>7;
 0C4E 80916000          lds R24,_tinteg_v
 0C52 90916100          lds R25,_tinteg_v+1
 0C56 8038              cpi R24,128
 0C58 E0E0              ldi R30,0
 0C5A 9E07              cpc R25,R30
 0C5C A9F4              brne L128
 0C5E           X68:
 0C5E                   .dbline 318
 0C5E 87E0              ldi R24,7
 0C60 90E0              ldi R25,0
 0C62 20911000          lds R18,_oshibka_v+2
 0C66 30911100          lds R19,_oshibka_v+2+1
 0C6A 00910E00          lds R16,_oshibka_v
 0C6E 10910F00          lds R17,_oshibka_v+1
 0C72 8A93              st -y,R24
 0C74 0E940000          xcall asr32
 0C78 10933B00          sts _Uv_i+1,R17
 0C7C 00933A00          sts _Uv_i,R16
 0C80 30933D00          sts _Uv_i+2+1,R19
 0C84 20933C00          sts _Uv_i+2,R18
 0C88           L128:
 0C88           L127:
 0C88           L125:
 0C88           L123:
 0C88           L121:
 0C88           L119:
 0C88           L117:
 0C88           L115:
 0C88           L113:
 0C88           L111:
 0C88                   .dbline 319
 0C88           ;  Urn=Uv_p+Uv_i+oshibkaold_v;
 0C88 40903C00          lds R4,_Uv_i+2
 0C8C 50903D00          lds R5,_Uv_i+2+1
 0C90 20903A00          lds R2,_Uv_i
 0C94 30903B00          lds R3,_Uv_i+1
 0C98 80904000          lds R8,_Uv_p+2
 0C9C 90904100          lds R9,_Uv_p+2+1
 0CA0 60903E00          lds R6,_Uv_p
 0CA4 70903F00          lds R7,_Uv_p+1
 0CA8 620C              add R6,R2
 0CAA 731C              adc R7,R3
 0CAC 841C              adc R8,R4
 0CAE 951C              adc R9,R5
 0CB0 40901800          lds R4,_oshibkaold_v+2
 0CB4 50901900          lds R5,_oshibkaold_v+2+1
 0CB8 20901600          lds R2,_oshibkaold_v
 0CBC 30901700          lds R3,_oshibkaold_v+1
 0CC0 620C              add R6,R2
 0CC2 731C              adc R7,R3
 0CC4 841C              adc R8,R4
 0CC6 951C              adc R9,R5
 0CC8 70922300          sts _Urn+1,R7
 0CCC 60922200          sts _Urn,R6
 0CD0 90922500          sts _Urn+2+1,R9
 0CD4 80922400          sts _Urn+2,R8
 0CD8                   .dbline 320
 0CD8           ;  Uout_v=Urn;
 0CD8 1301              movw R2,R6
 0CDA 2401              movw R4,R8
 0CDC 30923300          sts _Uout_v+1,R3
 0CE0 20923200          sts _Uout_v,R2
 0CE4 50923500          sts _Uout_v+2+1,R5
 0CE8 40923400          sts _Uout_v+2,R4
 0CEC                   .dbline 321
 0CEC           ;  oshibkaold_v=Uout_v-Uv_p; 
 0CEC 40904000          lds R4,_Uv_p+2
 0CF0 50904100          lds R5,_Uv_p+2+1
 0CF4 20903E00          lds R2,_Uv_p
 0CF8 30903F00          lds R3,_Uv_p+1
 0CFC 80903400          lds R8,_Uout_v+2
 0D00 90903500          lds R9,_Uout_v+2+1
 0D04 60903200          lds R6,_Uout_v
 0D08 70903300          lds R7,_Uout_v+1
 0D0C 6218              sub R6,R2
 0D0E 7308              sbc R7,R3
 0D10 8408              sbc R8,R4
 0D12 9508              sbc R9,R5
 0D14 70921700          sts _oshibkaold_v+1,R7
 0D18 60921600          sts _oshibkaold_v,R6
 0D1C 90921900          sts _oshibkaold_v+2+1,R9
 0D20 80921800          sts _oshibkaold_v+2,R8
 0D24                   .dbline 322
 0D24           ;  switch(iupor)
 0D24 20906800          lds R2,_iupor
 0D28 30906900          lds R3,_iupor+1
 0D2C C101              movw R24,R2
 0D2E 8A30              cpi R24,10
 0D30 E0E0              ldi R30,0
 0D32 9E07              cpc R25,R30
 0D34 09F4              brne X112
 0D36 60C0              xjmp L137
 0D38           X112:
 0D38           X69:
 0D38 8AE0              ldi R24,10
 0D3A 90E0              ldi R25,0
 0D3C 8215              cp R24,R2
 0D3E 9305              cpc R25,R3
 0D40 4CF0              brlt L153
 0D42           X70:
 0D42           L152:
 0D42 80916800          lds R24,_iupor
 0D46 90916900          lds R25,_iupor+1
 0D4A 8530              cpi R24,5
 0D4C E0E0              ldi R30,0
 0D4E 9E07              cpc R25,R30
 0D50 D1F0              breq L132
 0D52           X71:
 0D52 FBC0              xjmp L130
 0D54           L153:
 0D54 A0906800          lds R10,_iupor
 0D58 B0906900          lds R11,_iupor+1
 0D5C C501              movw R24,R10
 0D5E 8F30              cpi R24,15
 0D60 E0E0              ldi R30,0
 0D62 9E07              cpc R25,R30
 0D64 09F4              brne X113
 0D66 81C0              xjmp L142
 0D68           X113:
 0D68           X72:
 0D68 8F30              cpi R24,15
 0D6A E0E0              ldi R30,0
 0D6C 9E07              cpc R25,R30
 0D6E 0CF4              brge X114
 0D70 ECC0              xjmp L130
 0D72           X114:
 0D72           X73:
 0D72           L154:
 0D72 80916800          lds R24,_iupor
 0D76 90916900          lds R25,_iupor+1
 0D7A 8431              cpi R24,20
 0D7C E0E0              ldi R30,0
 0D7E 9E07              cpc R25,R30
 0D80 09F4              brne X115
 0D82 ACC0              xjmp L147
 0D84           X115:
 0D84           X74:
 0D84 E2C0              xjmp L130
 0D86           L132:
 0D86                   .dbline 324
 0D86           ;          {
 0D86           ;          case 5: { if(Urn>=50) Urn=50;
 0D86                   .dbline 324
 0D86 42E3              ldi R20,50
 0D88 50E0              ldi R21,0
 0D8A 60E0              ldi R22,0
 0D8C 70E0              ldi R23,0
 0D8E 40902400          lds R4,_Urn+2
 0D92 50902500          lds R5,_Urn+2+1
 0D96 20902200          lds R2,_Urn
 0D9A 30902300          lds R3,_Urn+1
 0D9E 2416              cp R2,R20
 0DA0 3506              cpc R3,R21
 0DA2 4606              cpc R4,R22
 0DA4 5706              cpc R5,R23
 0DA6 5CF0              brlt L133
 0DA8           X75:
 0DA8                   .dbline 324
 0DA8 82E3              ldi R24,50
 0DAA 80932200          sts _Urn+0,R24
 0DAE 80E0              ldi R24,0
 0DB0 80932300          sts _Urn+1,R24
 0DB4 80932400          sts _Urn+2,R24
 0DB8 80932500          sts _Urn+3,R24
 0DBC C6C0              xjmp L131
 0DBE           L133:
 0DBE                   .dbline 325
 0DBE           ;                    else if(Urn<-50) Urn=-50;}
 0DBE 4EEC              ldi R20,206
 0DC0 5FEF              ldi R21,255
 0DC2 6FEF              ldi R22,255
 0DC4 7FEF              ldi R23,255
 0DC6 40902400          lds R4,_Urn+2
 0DCA 50902500          lds R5,_Urn+2+1
 0DCE 20902200          lds R2,_Urn
 0DD2 30902300          lds R3,_Urn+1
 0DD6 2416              cp R2,R20
 0DD8 3506              cpc R3,R21
 0DDA 4606              cpc R4,R22
 0DDC 5706              cpc R5,R23
 0DDE 0CF0              brlt X116
 0DE0 B4C0              xjmp L131
 0DE2           X116:
 0DE2           X76:
 0DE2                   .dbline 325
 0DE2 8EEC              ldi R24,206
 0DE4 80932200          sts _Urn+0,R24
 0DE8 8FEF              ldi R24,255
 0DEA 80932300          sts _Urn+1,R24
 0DEE 80932400          sts _Urn+2,R24
 0DF2 80932500          sts _Urn+3,R24
 0DF6                   .dbline 325
 0DF6                   .dbline 326
 0DF6           ;                                  break;
 0DF6 A9C0              xjmp L131
 0DF8           L137:
 0DF8                   .dbline 327
 0DF8           ;                case 10: { if(Urn>=100) Urn=100;
 0DF8                   .dbline 327
 0DF8 44E6              ldi R20,100
 0DFA 50E0              ldi R21,0
 0DFC 60E0              ldi R22,0
 0DFE 70E0              ldi R23,0
 0E00 40902400          lds R4,_Urn+2
 0E04 50902500          lds R5,_Urn+2+1
 0E08 20902200          lds R2,_Urn
 0E0C 30902300          lds R3,_Urn+1
 0E10 2416              cp R2,R20
 0E12 3506              cpc R3,R21
 0E14 4606              cpc R4,R22
 0E16 5706              cpc R5,R23
 0E18 5CF0              brlt L138
 0E1A           X77:
 0E1A                   .dbline 327
 0E1A 84E6              ldi R24,100
 0E1C 80932200          sts _Urn+0,R24
 0E20 80E0              ldi R24,0
 0E22 80932300          sts _Urn+1,R24
 0E26 80932400          sts _Urn+2,R24
 0E2A 80932500          sts _Urn+3,R24
 0E2E 8DC0              xjmp L131
 0E30           L138:
 0E30                   .dbline 328
 0E30           ;                    else if(Urn<-100) Urn=-100;}
 0E30 4CE9              ldi R20,156
 0E32 5FEF              ldi R21,255
 0E34 6FEF              ldi R22,255
 0E36 7FEF              ldi R23,255
 0E38 40902400          lds R4,_Urn+2
 0E3C 50902500          lds R5,_Urn+2+1
 0E40 20902200          lds R2,_Urn
 0E44 30902300          lds R3,_Urn+1
 0E48 2416              cp R2,R20
 0E4A 3506              cpc R3,R21
 0E4C 4606              cpc R4,R22
 0E4E 5706              cpc R5,R23
 0E50 0CF0              brlt X117
 0E52 7BC0              xjmp L131
 0E54           X117:
 0E54           X78:
 0E54                   .dbline 328
 0E54 8CE9              ldi R24,156
 0E56 80932200          sts _Urn+0,R24
 0E5A 8FEF              ldi R24,255
 0E5C 80932300          sts _Urn+1,R24
 0E60 80932400          sts _Urn+2,R24
 0E64 80932500          sts _Urn+3,R24
 0E68                   .dbline 328
 0E68                   .dbline 329
 0E68           ;                                  break;
 0E68 70C0              xjmp L131
 0E6A           L142:
 0E6A                   .dbline 330
 0E6A           ;                case 15: { if(Urn>=150) Urn=150;
 0E6A                   .dbline 330
 0E6A 46E9              ldi R20,150
 0E6C 50E0              ldi R21,0
 0E6E 60E0              ldi R22,0
 0E70 70E0              ldi R23,0
 0E72 40902400          lds R4,_Urn+2
 0E76 50902500          lds R5,_Urn+2+1
 0E7A 20902200          lds R2,_Urn
 0E7E 30902300          lds R3,_Urn+1
 0E82 2416              cp R2,R20
 0E84 3506              cpc R3,R21
 0E86 4606              cpc R4,R22
 0E88 5706              cpc R5,R23
 0E8A 5CF0              brlt L143
 0E8C           X79:
 0E8C                   .dbline 330
 0E8C 86E9              ldi R24,150
 0E8E 80932200          sts _Urn+0,R24
 0E92 80E0              ldi R24,0
 0E94 80932300          sts _Urn+1,R24
 0E98 80932400          sts _Urn+2,R24
 0E9C 80932500          sts _Urn+3,R24
 0EA0 54C0              xjmp L131
 0EA2           L143:
 0EA2                   .dbline 331
 0EA2           ;                    else if(Urn<-150) Urn=-150;}
 0EA2 4AE6              ldi R20,106
 0EA4 5FEF              ldi R21,255
 0EA6 6FEF              ldi R22,255
 0EA8 7FEF              ldi R23,255
 0EAA 40902400          lds R4,_Urn+2
 0EAE 50902500          lds R5,_Urn+2+1
 0EB2 20902200          lds R2,_Urn
 0EB6 30902300          lds R3,_Urn+1
 0EBA 2416              cp R2,R20
 0EBC 3506              cpc R3,R21
 0EBE 4606              cpc R4,R22
 0EC0 5706              cpc R5,R23
 0EC2 0CF0              brlt X118
 0EC4 42C0              xjmp L131
 0EC6           X118:
 0EC6           X80:
 0EC6                   .dbline 331
 0EC6 8AE6              ldi R24,106
 0EC8 80932200          sts _Urn+0,R24
 0ECC 8FEF              ldi R24,255
 0ECE 80932300          sts _Urn+1,R24
 0ED2 80932400          sts _Urn+2,R24
 0ED6 80932500          sts _Urn+3,R24
 0EDA                   .dbline 331
 0EDA                   .dbline 332
 0EDA           ;                                  break;
 0EDA 37C0              xjmp L131
 0EDC           L147:
 0EDC                   .dbline 333
 0EDC           ;                case 20: { if(Urn>=200) Urn=200;
 0EDC                   .dbline 333
 0EDC 48EC              ldi R20,200
 0EDE 50E0              ldi R21,0
 0EE0 60E0              ldi R22,0
 0EE2 70E0              ldi R23,0
 0EE4 40902400          lds R4,_Urn+2
 0EE8 50902500          lds R5,_Urn+2+1
 0EEC 20902200          lds R2,_Urn
 0EF0 30902300          lds R3,_Urn+1
 0EF4 2416              cp R2,R20
 0EF6 3506              cpc R3,R21
 0EF8 4606              cpc R4,R22
 0EFA 5706              cpc R5,R23
 0EFC 5CF0              brlt L148
 0EFE           X81:
 0EFE                   .dbline 333
 0EFE 88EC              ldi R24,200
 0F00 80932200          sts _Urn+0,R24
 0F04 80E0              ldi R24,0
 0F06 80932300          sts _Urn+1,R24
 0F0A 80932400          sts _Urn+2,R24
 0F0E 80932500          sts _Urn+3,R24
 0F12 1BC0              xjmp L131
 0F14           L148:
 0F14                   .dbline 334
 0F14           ;                    else if(Urn<-200) Urn=-200;}
 0F14 48E3              ldi R20,56
 0F16 5FEF              ldi R21,255
 0F18 6FEF              ldi R22,255
 0F1A 7FEF              ldi R23,255
 0F1C 40902400          lds R4,_Urn+2
 0F20 50902500          lds R5,_Urn+2+1
 0F24 20902200          lds R2,_Urn
 0F28 30902300          lds R3,_Urn+1
 0F2C 2416              cp R2,R20
 0F2E 3506              cpc R3,R21
 0F30 4606              cpc R4,R22
 0F32 5706              cpc R5,R23
 0F34 54F4              brge L131
 0F36           X82:
 0F36                   .dbline 334
 0F36 88E3              ldi R24,56
 0F38 80932200          sts _Urn+0,R24
 0F3C 8FEF              ldi R24,255
 0F3E 80932300          sts _Urn+1,R24
 0F42 80932400          sts _Urn+2,R24
 0F46 80932500          sts _Urn+3,R24
 0F4A                   .dbline 334
 0F4A                   .dbline 335
 0F4A           ;                                  break;
 0F4A           L130:
 0F4A           L131:
 0F4A                   .dbline 337
 0F4A           ;                }         
 0F4A           ;  }}
 0F4A           L77:
 0F4A                   .dbline 337
 0F4A           L75:
 0F4A                   .dbline 339
 0F4A           ;  //-------------------Current regulator---------------
 0F4A           ;   if(kos_i==1) tok_os=tok_os;
 0F4A 80916C00          lds R24,_kos_i
 0F4E 90916D00          lds R25,_kos_i+1
 0F52 8130              cpi R24,1
 0F54 E0E0              ldi R30,0
 0F56 9E07              cpc R25,R30
 0F58 49F4              brne L155
 0F5A           X83:
 0F5A                   .dbline 339
 0F5A 20905400          lds R2,_tok_os
 0F5E 30905500          lds R3,_tok_os+1
 0F62 30925500          sts _tok_os+1,R3
 0F66 20925400          sts _tok_os,R2
 0F6A 96C0              xjmp L156
 0F6C           L155:
 0F6C                   .dbline 340
 0F6C           ;  else if(kos_i==2) tok_os=tok_os>>1;
 0F6C 80916C00          lds R24,_kos_i
 0F70 90916D00          lds R25,_kos_i+1
 0F74 8230              cpi R24,2
 0F76 E0E0              ldi R30,0
 0F78 9E07              cpc R25,R30
 0F7A 59F4              brne L157
 0F7C           X84:
 0F7C                   .dbline 340
 0F7C 20905400          lds R2,_tok_os
 0F80 30905500          lds R3,_tok_os+1
 0F84 3594              asr R3
 0F86 2794              ror R2
 0F88 30925500          sts _tok_os+1,R3
 0F8C 20925400          sts _tok_os,R2
 0F90 83C0              xjmp L158
 0F92           L157:
 0F92                   .dbline 341
 0F92           ;  else if(kos_i==4) tok_os=tok_os>>2;
 0F92 80916C00          lds R24,_kos_i
 0F96 90916D00          lds R25,_kos_i+1
 0F9A 8430              cpi R24,4
 0F9C E0E0              ldi R30,0
 0F9E 9E07              cpc R25,R30
 0FA0 69F4              brne L159
 0FA2           X85:
 0FA2                   .dbline 341
 0FA2 20905400          lds R2,_tok_os
 0FA6 30905500          lds R3,_tok_os+1
 0FAA 3594              asr R3
 0FAC 2794              ror R2
 0FAE 3594              asr R3
 0FB0 2794              ror R2
 0FB2 30925500          sts _tok_os+1,R3
 0FB6 20925400          sts _tok_os,R2
 0FBA 6EC0              xjmp L160
 0FBC           L159:
 0FBC                   .dbline 342
 0FBC           ;  else if(kos_i==8) tok_os=tok_os>>3;
 0FBC 80916C00          lds R24,_kos_i
 0FC0 90916D00          lds R25,_kos_i+1
 0FC4 8830              cpi R24,8
 0FC6 E0E0              ldi R30,0
 0FC8 9E07              cpc R25,R30
 0FCA 79F4              brne L161
 0FCC           X86:
 0FCC                   .dbline 342
 0FCC 20905400          lds R2,_tok_os
 0FD0 30905500          lds R3,_tok_os+1
 0FD4 3594              asr R3
 0FD6 2794              ror R2
 0FD8 3594              asr R3
 0FDA 2794              ror R2
 0FDC 3594              asr R3
 0FDE 2794              ror R2
 0FE0 30925500          sts _tok_os+1,R3
 0FE4 20925400          sts _tok_os,R2
 0FE8 57C0              xjmp L162
 0FEA           L161:
 0FEA                   .dbline 343
 0FEA           ;  else if(kos_i==16) tok_os=tok_os>>4;
 0FEA 80916C00          lds R24,_kos_i
 0FEE 90916D00          lds R25,_kos_i+1
 0FF2 8031              cpi R24,16
 0FF4 E0E0              ldi R30,0
 0FF6 9E07              cpc R25,R30
 0FF8 89F4              brne L163
 0FFA           X87:
 0FFA                   .dbline 343
 0FFA 20905400          lds R2,_tok_os
 0FFE 30905500          lds R3,_tok_os+1
 1002 3594              asr R3
 1004 2794              ror R2
 1006 3594              asr R3
 1008 2794              ror R2
 100A 3594              asr R3
 100C 2794              ror R2
 100E 3594              asr R3
 1010 2794              ror R2
 1012 30925500          sts _tok_os+1,R3
 1016 20925400          sts _tok_os,R2
 101A 3EC0              xjmp L164
 101C           L163:
 101C                   .dbline 344
 101C           ;  else if(kos_i==32) tok_os=tok_os>>5;
 101C 80916C00          lds R24,_kos_i
 1020 90916D00          lds R25,_kos_i+1
 1024 8032              cpi R24,32
 1026 E0E0              ldi R30,0
 1028 9E07              cpc R25,R30
 102A 69F4              brne L165
 102C           X88:
 102C                   .dbline 344
 102C 25E0              ldi R18,5
 102E 30E0              ldi R19,0
 1030 00915400          lds R16,_tok_os
 1034 10915500          lds R17,_tok_os+1
 1038 0E940000          xcall asr16
 103C 10935500          sts _tok_os+1,R17
 1040 00935400          sts _tok_os,R16
 1044 29C0              xjmp L166
 1046           L165:
 1046                   .dbline 345
 1046           ;  else if(kos_i==64) tok_os=tok_os>>6;
 1046 80916C00          lds R24,_kos_i
 104A 90916D00          lds R25,_kos_i+1
 104E 8034              cpi R24,64
 1050 E0E0              ldi R30,0
 1052 9E07              cpc R25,R30
 1054 69F4              brne L167
 1056           X89:
 1056                   .dbline 345
 1056 26E0              ldi R18,6
 1058 30E0              ldi R19,0
 105A 00915400          lds R16,_tok_os
 105E 10915500          lds R17,_tok_os+1
 1062 0E940000          xcall asr16
 1066 10935500          sts _tok_os+1,R17
 106A 00935400          sts _tok_os,R16
 106E 14C0              xjmp L168
 1070           L167:
 1070                   .dbline 346
 1070           ;  else if(kos_i==128) tok_os=tok_os>>7;
 1070 80916C00          lds R24,_kos_i
 1074 90916D00          lds R25,_kos_i+1
 1078 8038              cpi R24,128
 107A E0E0              ldi R30,0
 107C 9E07              cpc R25,R30
 107E 61F4              brne L169
 1080           X90:
 1080                   .dbline 346
 1080 27E0              ldi R18,7
 1082 30E0              ldi R19,0
 1084 00915400          lds R16,_tok_os
 1088 10915500          lds R17,_tok_os+1
 108C 0E940000          xcall asr16
 1090 10935500          sts _tok_os+1,R17
 1094 00935400          sts _tok_os,R16
 1098           L169:
 1098           L168:
 1098           L166:
 1098           L164:
 1098           L162:
 1098           L160:
 1098           L158:
 1098           L156:
 1098                   .dbline 347
 1098           ;  oshibka_i=Urn-tok_os;
 1098 20905400          lds R2,_tok_os
 109C 30905500          lds R3,_tok_os+1
 10A0 4424              clr R4
 10A2 37FC              sbrc R3,7
 10A4 4094              com R4
 10A6 5524              clr R5
 10A8 47FC              sbrc R4,7
 10AA 5094              com R5
 10AC 80902400          lds R8,_Urn+2
 10B0 90902500          lds R9,_Urn+2+1
 10B4 60902200          lds R6,_Urn
 10B8 70902300          lds R7,_Urn+1
 10BC 6218              sub R6,R2
 10BE 7308              sbc R7,R3
 10C0 8408              sbc R8,R4
 10C2 9508              sbc R9,R5
 10C4 70921300          sts _oshibka_i+1,R7
 10C8 60921200          sts _oshibka_i,R6
 10CC 90921500          sts _oshibka_i+2+1,R9
 10D0 80921400          sts _oshibka_i+2,R8
 10D4                   .dbline 348
 10D4           ;  if(kprop_i==1) Ui_p=oshibka_i;
 10D4 80916400          lds R24,_kprop_i
 10D8 90916500          lds R25,_kprop_i+1
 10DC 8130              cpi R24,1
 10DE E0E0              ldi R30,0
 10E0 9E07              cpc R25,R30
 10E2 59F4              brne L171
 10E4           X91:
 10E4                   .dbline 348
 10E4 1301              movw R2,R6
 10E6 2401              movw R4,R8
 10E8 30922B00          sts _Ui_p+1,R3
 10EC 20922A00          sts _Ui_p,R2
 10F0 50922D00          sts _Ui_p+2+1,R5
 10F4 40922C00          sts _Ui_p+2,R4
 10F8 94C0              xjmp L172
 10FA           L171:
 10FA                   .dbline 349
 10FA           ;  else if(kprop_i==2) Ui_p=oshibka_i>>1;
 10FA 80916400          lds R24,_kprop_i
 10FE 90916500          lds R25,_kprop_i+1
 1102 8230              cpi R24,2
 1104 E0E0              ldi R30,0
 1106 9E07              cpc R25,R30
 1108 A9F4              brne L173
 110A           X92:
 110A                   .dbline 349
 110A 40901400          lds R4,_oshibka_i+2
 110E 50901500          lds R5,_oshibka_i+2+1
 1112 20901200          lds R2,_oshibka_i
 1116 30901300          lds R3,_oshibka_i+1
 111A 5594              asr R5
 111C 4794              ror R4
 111E 3794              ror R3
 1120 2794              ror R2
 1122 30922B00          sts _Ui_p+1,R3
 1126 20922A00          sts _Ui_p,R2
 112A 50922D00          sts _Ui_p+2+1,R5
 112E 40922C00          sts _Ui_p+2,R4
 1132 77C0              xjmp L174
 1134           L173:
 1134                   .dbline 350
 1134           ;  else if(kprop_i==4) Ui_p=oshibka_i>>2;
 1134 80916400          lds R24,_kprop_i
 1138 90916500          lds R25,_kprop_i+1
 113C 8430              cpi R24,4
 113E E0E0              ldi R30,0
 1140 9E07              cpc R25,R30
 1142 B1F4              brne L175
 1144           X93:
 1144                   .dbline 350
 1144 82E0              ldi R24,2
 1146 90E0              ldi R25,0
 1148 20911400          lds R18,_oshibka_i+2
 114C 30911500          lds R19,_oshibka_i+2+1
 1150 00911200          lds R16,_oshibka_i
 1154 10911300          lds R17,_oshibka_i+1
 1158 8A93              st -y,R24
 115A 0E940000          xcall asr32
 115E 10932B00          sts _Ui_p+1,R17
 1162 00932A00          sts _Ui_p,R16
 1166 30932D00          sts _Ui_p+2+1,R19
 116A 20932C00          sts _Ui_p+2,R18
 116E 59C0              xjmp L176
 1170           L175:
 1170                   .dbline 351
 1170           ;  else if(kprop_i==8) Ui_p=oshibka_i>>3;
 1170 80916400          lds R24,_kprop_i
 1174 90916500          lds R25,_kprop_i+1
 1178 8830              cpi R24,8
 117A E0E0              ldi R30,0
 117C 9E07              cpc R25,R30
 117E B1F4              brne L177
 1180           X94:
 1180                   .dbline 351
 1180 83E0              ldi R24,3
 1182 90E0              ldi R25,0
 1184 20911400          lds R18,_oshibka_i+2
 1188 30911500          lds R19,_oshibka_i+2+1
 118C 00911200          lds R16,_oshibka_i
 1190 10911300          lds R17,_oshibka_i+1
 1194 8A93              st -y,R24
 1196 0E940000          xcall asr32
 119A 10932B00          sts _Ui_p+1,R17
 119E 00932A00          sts _Ui_p,R16
 11A2 30932D00          sts _Ui_p+2+1,R19
 11A6 20932C00          sts _Ui_p+2,R18
 11AA 3BC0              xjmp L178
 11AC           L177:
 11AC                   .dbline 352
 11AC           ;  else if(kprop_i==16) Ui_p=oshibka_i>>4;
 11AC 80916400          lds R24,_kprop_i
 11B0 90916500          lds R25,_kprop_i+1
 11B4 8031              cpi R24,16
 11B6 E0E0              ldi R30,0
 11B8 9E07              cpc R25,R30
 11BA B1F4              brne L179
 11BC           X95:
 11BC                   .dbline 352
 11BC 84E0              ldi R24,4
 11BE 90E0              ldi R25,0
 11C0 20911400          lds R18,_oshibka_i+2
 11C4 30911500          lds R19,_oshibka_i+2+1
 11C8 00911200          lds R16,_oshibka_i
 11CC 10911300          lds R17,_oshibka_i+1
 11D0 8A93              st -y,R24
 11D2 0E940000          xcall asr32
 11D6 10932B00          sts _Ui_p+1,R17
 11DA 00932A00          sts _Ui_p,R16
 11DE 30932D00          sts _Ui_p+2+1,R19
 11E2 20932C00          sts _Ui_p+2,R18
 11E6 1DC0              xjmp L180
 11E8           L179:
 11E8                   .dbline 353
 11E8           ;  else if(kprop_i==32) Ui_p=oshibka_i>>5;
 11E8 80916400          lds R24,_kprop_i
 11EC 90916500          lds R25,_kprop_i+1
 11F0 8032              cpi R24,32
 11F2 E0E0              ldi R30,0
 11F4 9E07              cpc R25,R30
 11F6 A9F4              brne L181
 11F8           X96:
 11F8                   .dbline 353
 11F8 85E0              ldi R24,5
 11FA 90E0              ldi R25,0
 11FC 20911400          lds R18,_oshibka_i+2
 1200 30911500          lds R19,_oshibka_i+2+1
 1204 00911200          lds R16,_oshibka_i
 1208 10911300          lds R17,_oshibka_i+1
 120C 8A93              st -y,R24
 120E 0E940000          xcall asr32
 1212 10932B00          sts _Ui_p+1,R17
 1216 00932A00          sts _Ui_p,R16
 121A 30932D00          sts _Ui_p+2+1,R19
 121E 20932C00          sts _Ui_p+2,R18
 1222           L181:
 1222           L180:
 1222           L178:
 1222           L176:
 1222           L174:
 1222           L172:
 1222                   .dbline 354
 1222           ;  if((PIND&0x40)==0x00)Ui_i=0;
 1222 8699              sbic 0x10,6
 1224 0AC0              rjmp L183
 1226           X97:
 1226                   .dbline 354
 1226 80E0              ldi R24,0
 1228 80932E00          sts _Ui_i+0,R24
 122C 80932F00          sts _Ui_i+1,R24
 1230 80933000          sts _Ui_i+2,R24
 1234 80933100          sts _Ui_i+3,R24
 1238 FBC0              xjmp L184
 123A           L183:
 123A                   .dbline 355
 123A           ;  else if(tinteg_i==0) Ui_i=0;
 123A 20906600          lds R2,_tinteg_i
 123E 30906700          lds R3,_tinteg_i+1
 1242 2220              tst R2
 1244 61F4              brne L185
 1246 3320              tst R3
 1248 51F4              brne L185
 124A           X98:
 124A                   .dbline 355
 124A 80E0              ldi R24,0
 124C 80932E00          sts _Ui_i+0,R24
 1250 80932F00          sts _Ui_i+1,R24
 1254 80933000          sts _Ui_i+2,R24
 1258 80933100          sts _Ui_i+3,R24
 125C E9C0              xjmp L186
 125E           L185:
 125E                   .dbline 356
 125E           ;  else if(tinteg_i==1) Ui_i=oshibka_i;
 125E 80916600          lds R24,_tinteg_i
 1262 90916700          lds R25,_tinteg_i+1
 1266 8130              cpi R24,1
 1268 E0E0              ldi R30,0
 126A 9E07              cpc R25,R30
 126C 89F4              brne L187
 126E           X99:
 126E                   .dbline 356
 126E 40901400          lds R4,_oshibka_i+2
 1272 50901500          lds R5,_oshibka_i+2+1
 1276 20901200          lds R2,_oshibka_i
 127A 30901300          lds R3,_oshibka_i+1
 127E 30922F00          sts _Ui_i+1,R3
 1282 20922E00          sts _Ui_i,R2
 1286 50923100          sts _Ui_i+2+1,R5
 128A 40923000          sts _Ui_i+2,R4
 128E D0C0              xjmp L188
 1290           L187:
 1290                   .dbline 357
 1290           ;  else if(tinteg_i==2) Ui_i=oshibka_i>>1;
 1290 80916600          lds R24,_tinteg_i
 1294 90916700          lds R25,_tinteg_i+1
 1298 8230              cpi R24,2
 129A E0E0              ldi R30,0
 129C 9E07              cpc R25,R30
 129E A9F4              brne L189
 12A0           X100:
 12A0                   .dbline 357
 12A0 40901400          lds R4,_oshibka_i+2
 12A4 50901500          lds R5,_oshibka_i+2+1
 12A8 20901200          lds R2,_oshibka_i
 12AC 30901300          lds R3,_oshibka_i+1
 12B0 5594              asr R5
 12B2 4794              ror R4
 12B4 3794              ror R3
 12B6 2794              ror R2
 12B8 30922F00          sts _Ui_i+1,R3
 12BC 20922E00          sts _Ui_i,R2
 12C0 50923100          sts _Ui_i+2+1,R5
 12C4 40923000          sts _Ui_i+2,R4
 12C8 B3C0              xjmp L190
 12CA           L189:
 12CA                   .dbline 358
 12CA           ;  else if(tinteg_i==4) Ui_i=oshibka_i>>2;
 12CA 80916600          lds R24,_tinteg_i
 12CE 90916700          lds R25,_tinteg_i+1
 12D2 8430              cpi R24,4
 12D4 E0E0              ldi R30,0
 12D6 9E07              cpc R25,R30
 12D8 B1F4              brne L191
 12DA           X101:
 12DA                   .dbline 358
 12DA 82E0              ldi R24,2
 12DC 90E0              ldi R25,0
 12DE 20911400          lds R18,_oshibka_i+2
 12E2 30911500          lds R19,_oshibka_i+2+1
 12E6 00911200          lds R16,_oshibka_i
 12EA 10911300          lds R17,_oshibka_i+1
 12EE 8A93              st -y,R24
 12F0 0E940000          xcall asr32
 12F4 10932F00          sts _Ui_i+1,R17
 12F8 00932E00          sts _Ui_i,R16
 12FC 30933100          sts _Ui_i+2+1,R19
 1300 20933000          sts _Ui_i+2,R18
 1304 95C0              xjmp L192
 1306           L191:
 1306                   .dbline 359
 1306           ;  else if(tinteg_i==8) Ui_i=oshibka_i>>3;
 1306 80916600          lds R24,_tinteg_i
 130A 90916700          lds R25,_tinteg_i+1
 130E 8830              cpi R24,8
 1310 E0E0              ldi R30,0
 1312 9E07              cpc R25,R30
 1314 B1F4              brne L193
 1316           X102:
 1316                   .dbline 359
 1316 83E0              ldi R24,3
 1318 90E0              ldi R25,0
 131A 20911400          lds R18,_oshibka_i+2
 131E 30911500          lds R19,_oshibka_i+2+1
 1322 00911200          lds R16,_oshibka_i
 1326 10911300          lds R17,_oshibka_i+1
 132A 8A93              st -y,R24
 132C 0E940000          xcall asr32
 1330 10932F00          sts _Ui_i+1,R17
 1334 00932E00          sts _Ui_i,R16
 1338 30933100          sts _Ui_i+2+1,R19
 133C 20933000          sts _Ui_i+2,R18
 1340 77C0              xjmp L194
 1342           L193:
 1342                   .dbline 360
 1342           ;  else if(tinteg_i==16) Ui_i=oshibka_i>>4;
 1342 80916600          lds R24,_tinteg_i
 1346 90916700          lds R25,_tinteg_i+1
 134A 8031              cpi R24,16
 134C E0E0              ldi R30,0
 134E 9E07              cpc R25,R30
 1350 B1F4              brne L195
 1352           X103:
 1352                   .dbline 360
 1352 84E0              ldi R24,4
 1354 90E0              ldi R25,0
 1356 20911400          lds R18,_oshibka_i+2
 135A 30911500          lds R19,_oshibka_i+2+1
 135E 00911200          lds R16,_oshibka_i
 1362 10911300          lds R17,_oshibka_i+1
 1366 8A93              st -y,R24
 1368 0E940000          xcall asr32
 136C 10932F00          sts _Ui_i+1,R17
 1370 00932E00          sts _Ui_i,R16
 1374 30933100          sts _Ui_i+2+1,R19
 1378 20933000          sts _Ui_i+2,R18
 137C 59C0              xjmp L196
 137E           L195:
 137E                   .dbline 361
 137E           ;  else if(tinteg_i==32) Ui_i=oshibka_i>>5;
 137E 80916600          lds R24,_tinteg_i
 1382 90916700          lds R25,_tinteg_i+1
 1386 8032              cpi R24,32
 1388 E0E0              ldi R30,0
 138A 9E07              cpc R25,R30
 138C B1F4              brne L197
 138E           X104:
 138E                   .dbline 361
 138E 85E0              ldi R24,5
 1390 90E0              ldi R25,0
 1392 20911400          lds R18,_oshibka_i+2
 1396 30911500          lds R19,_oshibka_i+2+1
 139A 00911200          lds R16,_oshibka_i
 139E 10911300          lds R17,_oshibka_i+1
 13A2 8A93              st -y,R24
 13A4 0E940000          xcall asr32
 13A8 10932F00          sts _Ui_i+1,R17
 13AC 00932E00          sts _Ui_i,R16
 13B0 30933100          sts _Ui_i+2+1,R19
 13B4 20933000          sts _Ui_i+2,R18
 13B8 3BC0              xjmp L198
 13BA           L197:
 13BA                   .dbline 362
 13BA           ;  else if(tinteg_i==64) Ui_i=oshibka_i>>6;
 13BA 80916600          lds R24,_tinteg_i
 13BE 90916700          lds R25,_tinteg_i+1
 13C2 8034              cpi R24,64
 13C4 E0E0              ldi R30,0
 13C6 9E07              cpc R25,R30
 13C8 B1F4              brne L199
 13CA           X105:
 13CA                   .dbline 362
 13CA 86E0              ldi R24,6
 13CC 90E0              ldi R25,0
 13CE 20911400          lds R18,_oshibka_i+2
 13D2 30911500          lds R19,_oshibka_i+2+1
 13D6 00911200          lds R16,_oshibka_i
 13DA 10911300          lds R17,_oshibka_i+1
 13DE 8A93              st -y,R24
 13E0 0E940000          xcall asr32
 13E4 10932F00          sts _Ui_i+1,R17
 13E8 00932E00          sts _Ui_i,R16
 13EC 30933100          sts _Ui_i+2+1,R19
 13F0 20933000          sts _Ui_i+2,R18
 13F4 1DC0              xjmp L200
 13F6           L199:
 13F6                   .dbline 363
 13F6           ;  else if(tinteg_v==128) Uv_i=oshibka_v>>7;
 13F6 80916000          lds R24,_tinteg_v
 13FA 90916100          lds R25,_tinteg_v+1
 13FE 8038              cpi R24,128
 1400 E0E0              ldi R30,0
 1402 9E07              cpc R25,R30
 1404 A9F4              brne L201
 1406           X106:
 1406                   .dbline 363
 1406 87E0              ldi R24,7
 1408 90E0              ldi R25,0
 140A 20911000          lds R18,_oshibka_v+2
 140E 30911100          lds R19,_oshibka_v+2+1
 1412 00910E00          lds R16,_oshibka_v
 1416 10910F00          lds R17,_oshibka_v+1
 141A 8A93              st -y,R24
 141C 0E940000          xcall asr32
 1420 10933B00          sts _Uv_i+1,R17
 1424 00933A00          sts _Uv_i,R16
 1428 30933D00          sts _Uv_i+2+1,R19
 142C 20933C00          sts _Uv_i+2,R18
 1430           L201:
 1430           L200:
 1430           L198:
 1430           L196:
 1430           L194:
 1430           L192:
 1430           L190:
 1430           L188:
 1430           L186:
 1430           L184:
 1430                   .dbline 364
 1430           ;  Urt=Ui_p+Ui_i+oshibkaold_i;
 1430 40903000          lds R4,_Ui_i+2
 1434 50903100          lds R5,_Ui_i+2+1
 1438 20902E00          lds R2,_Ui_i
 143C 30902F00          lds R3,_Ui_i+1
 1440 80902C00          lds R8,_Ui_p+2
 1444 90902D00          lds R9,_Ui_p+2+1
 1448 60902A00          lds R6,_Ui_p
 144C 70902B00          lds R7,_Ui_p+1
 1450 620C              add R6,R2
 1452 731C              adc R7,R3
 1454 841C              adc R8,R4
 1456 951C              adc R9,R5
 1458 40901C00          lds R4,_oshibkaold_i+2
 145C 50901D00          lds R5,_oshibkaold_i+2+1
 1460 20901A00          lds R2,_oshibkaold_i
 1464 30901B00          lds R3,_oshibkaold_i+1
 1468 620C              add R6,R2
 146A 731C              adc R7,R3
 146C 841C              adc R8,R4
 146E 951C              adc R9,R5
 1470 70922700          sts _Urt+1,R7
 1474 60922600          sts _Urt,R6
 1478 90922900          sts _Urt+2+1,R9
 147C 80922800          sts _Urt+2,R8
 1480                   .dbline 365
 1480           ;  Uout_i=Urt;
 1480 1301              movw R2,R6
 1482 2401              movw R4,R8
 1484 30923700          sts _Uout_i+1,R3
 1488 20923600          sts _Uout_i,R2
 148C 50923900          sts _Uout_i+2+1,R5
 1490 40923800          sts _Uout_i+2,R4
 1494                   .dbline 366
 1494           ;  oshibkaold_i=Uout_i-Ui_p;
 1494 40902C00          lds R4,_Ui_p+2
 1498 50902D00          lds R5,_Ui_p+2+1
 149C 20902A00          lds R2,_Ui_p
 14A0 30902B00          lds R3,_Ui_p+1
 14A4 80903800          lds R8,_Uout_i+2
 14A8 90903900          lds R9,_Uout_i+2+1
 14AC 60903600          lds R6,_Uout_i
 14B0 70903700          lds R7,_Uout_i+1
 14B4 6218              sub R6,R2
 14B6 7308              sbc R7,R3
 14B8 8408              sbc R8,R4
 14BA 9508              sbc R9,R5
 14BC 70921B00          sts _oshibkaold_i+1,R7
 14C0 60921A00          sts _oshibkaold_i,R6
 14C4 90921D00          sts _oshibkaold_i+2+1,R9
 14C8 80921C00          sts _oshibkaold_i+2,R8
 14CC                   .dbline 367
 14CC           ;  Urt=Urt>>5;
 14CC 85E0              ldi R24,5
 14CE 90E0              ldi R25,0
 14D0 20912800          lds R18,_Urt+2
 14D4 30912900          lds R19,_Urt+2+1
 14D8 00912600          lds R16,_Urt
 14DC 10912700          lds R17,_Urt+1
 14E0 8A93              st -y,R24
 14E2 0E940000          xcall asr32
 14E6 10932700          sts _Urt+1,R17
 14EA 00932600          sts _Urt,R16
 14EE 30932900          sts _Urt+2+1,R19
 14F2 20932800          sts _Urt+2,R18
 14F6                   .dbline 368
 14F6           ;  }
 14F6           L57:
 14F6                   .dbline 370
 14F6           ;  //-----------------Characteristics switcher--------------
 14F6           ;   if(FWD==1)
 14F6 80914200          lds R24,_FWD
 14FA 8130              cpi R24,1
 14FC 91F4              brne L203
 14FE           X107:
 14FE                   .dbline 371
 14FE           ;   {
 14FE                   .dbline 372
 14FE           ;   Urt=-Urt;//drive mode
 14FE 20912800          lds R18,_Urt+2
 1502 30912900          lds R19,_Urt+2+1
 1506 00912600          lds R16,_Urt
 150A 10912700          lds R17,_Urt+1
 150E 0E940000          xcall neg32
 1512 10932700          sts _Urt+1,R17
 1516 00932600          sts _Urt,R16
 151A 30932900          sts _Urt+2+1,R19
 151E 20932800          sts _Urt+2,R18
 1522                   .dbline 373
 1522           ;   }
 1522           L203:
 1522                   .dbline 374
 1522           ;   alfa=Urt;
 1522 20902600          lds R2,_Urt
 1526 30902700          lds R3,_Urt+1
 152A 30920100          sts _alfa+1,R3
 152E 20920000          sts _alfa,R2
 1532                   .dbline 376
 1532           ;   //---------------Seed direction sensor-----------------
 1532           ;   if(Urn>=2)
 1532 42E0              ldi R20,2
 1534 50E0              ldi R21,0
 1536 60E0              ldi R22,0
 1538 70E0              ldi R23,0
 153A 40902400          lds R4,_Urn+2
 153E 50902500          lds R5,_Urn+2+1
 1542 20902200          lds R2,_Urn
 1546 30902300          lds R3,_Urn+1
 154A 2416              cp R2,R20
 154C 3506              cpc R3,R21
 154E 4606              cpc R4,R22
 1550 5706              cpc R5,R23
 1552 3CF0              brlt L205
 1554           X108:
 1554                   .dbline 377
 1554           ;   {
 1554                   .dbline 378
 1554           ;    FWD_ref=1;
 1554 81E0              ldi R24,1
 1556 80934400          sts _FWD_ref,R24
 155A                   .dbline 379
 155A           ;    REV_ref=0;
 155A 2224              clr R2
 155C 20924500          sts _REV_ref,R2
 1560                   .dbline 380
 1560           ;   }
 1560 17C0              xjmp L206
 1562           L205:
 1562                   .dbline 381
 1562           ;   else if(Urn<=-2)
 1562 4EEF              ldi R20,254
 1564 5FEF              ldi R21,255
 1566 6FEF              ldi R22,255
 1568 7FEF              ldi R23,255
 156A 40902400          lds R4,_Urn+2
 156E 50902500          lds R5,_Urn+2+1
 1572 20902200          lds R2,_Urn
 1576 30902300          lds R3,_Urn+1
 157A 4215              cp R20,R2
 157C 5305              cpc R21,R3
 157E 6405              cpc R22,R4
 1580 7505              cpc R23,R5
 1582 34F0              brlt L207
 1584           X109:
 1584                   .dbline 382
 1584           ;     {
 1584                   .dbline 383
 1584           ;       FWD_ref=0;
 1584 2224              clr R2
 1586 20924400          sts _FWD_ref,R2
 158A                   .dbline 384
 158A           ;       REV_ref=1;
 158A 81E0              ldi R24,1
 158C 80934500          sts _REV_ref,R24
 1590                   .dbline 385
 1590           ;       }
 1590           L207:
 1590           L206:
 1590                   .dbline 387
 1590           ;  //---------------------------------------------------------
 1590           ;  ADCSRA|=0x40;//restart ADC conversion
 1590 369A              sbi 0x6,6
 1592                   .dbline 388
 1592           ;  SEI();
 1592 7894              sei
 1594                   .dbline -2
 1594           L55:
 1594                   .dbline 0 ; func end
 1594 0E940000          xcall pop_xgsetF0FC
 1598 0990              ld R0,y+
 159A 0FBE              OUT 63,R0
 159C F991              ld R31,y+
 159E E991              ld R30,y+
 15A0 B991              ld R27,y+
 15A2 A991              ld R26,y+
 15A4 9991              ld R25,y+
 15A6 8991              ld R24,y+
 15A8 3991              ld R19,y+
 15AA 2991              ld R18,y+
 15AC 1991              ld R17,y+
 15AE 0991              ld R16,y+
 15B0 9990              ld R9,y+
 15B2 8990              ld R8,y+
 15B4 7990              ld R7,y+
 15B6 6990              ld R6,y+
 15B8 5990              ld R5,y+
 15BA 4990              ld R4,y+
 15BC 3990              ld R3,y+
 15BE 2990              ld R2,y+
 15C0 1990              ld R1,y+
 15C2 0990              ld R0,y+
 15C4 1895              reti
 15C6                   .dbend
                        .area vector(rom, abs)
                        .org 28
 001C 0C94E30A          jmp _timer1_compa_isr
                        .area text(rom, con, rel)
 15C6                   .dbfile C:\COPYSI~1\ildar.c
 15C6                   .dbfunc e timer1_compa_isr _timer1_compa_isr fV
                        .even
 15C6           _timer1_compa_isr::
 15C6 2A92              st -y,R2
 15C8 3A92              st -y,R3
 15CA 0A93              st -y,R16
 15CC 1A93              st -y,R17
 15CE 8A93              st -y,R24
 15D0 AA93              st -y,R26
 15D2 EA93              st -y,R30
 15D4 2FB6              IN R2,63
 15D6 2A92              st -y,R2
 15D8                   .dbline -1
 15D8                   .dbline 393
 15D8           ; }
 15D8           ; 
 15D8           ; #pragma interrupt_handler timer1_compa_isr:iv_TIM1_COMPA
 15D8           ; void timer1_compa_isr(void)
 15D8           ; {
 15D8                   .dbline 394
 15D8           ;  CLI();
 15D8 F894              cli
 15DA                   .dbline 395
 15DA           ;  TCCR1B=0x00;//stop T1
 15DA 2224              clr R2
 15DC 2EBC              out 0x2e,R2
 15DE                   .dbline 396
 15DE           ;  TCNT1=0;//reset T1
 15DE 3324              clr R3
 15E0 3DBC              out 0x2d,R3
 15E2 2CBC              out 0x2c,R2
 15E4                   .dbline 397
 15E4           ;  PORTC|=0x10;//control output
 15E4 AC9A              sbi 0x15,4
 15E6                   .dbline 398
 15E6           ;  if(pause==0)
 15E6 20904600          lds R2,_pause
 15EA 2220              tst R2
 15EC 69F5              brne L210
 15EE           X119:
 15EE                   .dbline 399
 15EE           ;   {
 15EE                   .dbline 400
 15EE           ;   if((standby==0)&&(fault==0))
 15EE 20904700          lds R2,_standby
 15F2 2220              tst R2
 15F4 61F5              brne L211
 15F6           X120:
 15F6 20904A00          lds R2,_fault
 15FA 2220              tst R2
 15FC 41F5              brne L211
 15FE           X121:
 15FE                   .dbline 401
 15FE           ;    {
 15FE                   .dbline 402
 15FE           ;     switch(FWD)
 15FE 00914200          lds R16,_FWD
 1602 1127              clr R17
 1604 0030              cpi R16,0
 1606 0107              cpc R16,R17
 1608 29F0              breq L217
 160A           X122:
 160A 0130              cpi R16,1
 160C E0E0              ldi R30,0
 160E 1E07              cpc R17,R30
 1610 79F0              breq L220
 1612           X123:
 1612 1DC0              xjmp L211
 1614           L217:
 1614                   .dbline 405
 1614           ;      {
 1614           ;         case 0://backward
 1614           ;                       if((PIND&0x04)==0x04)//positive sin
 1614 80B3              in R24,0x10
 1616 8470              andi R24,4
 1618 8430              cpi R24,4
 161A 29F4              brne L218
 161C           X124:
 161C                   .dbline 406
 161C           ;                        {
 161C                   .dbline 407
 161C           ;                        PORTC&=0xF0;//switch all pulces off
 161C 85B3              in R24,0x15
 161E 807F              andi R24,240
 1620 85BB              out 0x15,R24
 1622                   .dbline 408
 1622           ;                        PORTC|=0x01;//VS1,VS2 "REV"
 1622 A89A              sbi 0x15,0
 1624                   .dbline 409
 1624           ;                        }
 1624 14C0              xjmp L211
 1626           L218:
 1626                   .dbline 411
 1626           ;                        else//negative sin
 1626           ;                         {
 1626                   .dbline 412
 1626           ;                         PORTC&=0xF0;//switch all pulces off
 1626 85B3              in R24,0x15
 1628 807F              andi R24,240
 162A 85BB              out 0x15,R24
 162C                   .dbline 413
 162C           ;                         PORTC|=0x02;//VS3,VS4 "REV"
 162C A99A              sbi 0x15,1
 162E                   .dbline 414
 162E           ;                         }
 162E                   .dbline 415
 162E           ;       break;
 162E 0FC0              xjmp L211
 1630           L220:
 1630                   .dbline 417
 1630           ;       case 1://forward
 1630           ;                       if((PIND&0x04)==0x00)//positive sin
 1630 8299              sbic 0x10,2
 1632 05C0              rjmp L221
 1634           X125:
 1634                   .dbline 418
 1634           ;                        {
 1634                   .dbline 419
 1634           ;                        PORTC&=0xF0;//switch all pulces off
 1634 85B3              in R24,0x15
 1636 807F              andi R24,240
 1638 85BB              out 0x15,R24
 163A                   .dbline 420
 163A           ;                        PORTC|=0x04;//VS1,VS2 "FWD"
 163A AA9A              sbi 0x15,2
 163C                   .dbline 421
 163C           ;                        }
 163C 08C0              xjmp L211
 163E           L221:
 163E                   .dbline 423
 163E           ;                        else//negative sin
 163E           ;                         {
 163E                   .dbline 424
 163E           ;                         PORTC&=0xF0;//switch all pulces off
 163E 85B3              in R24,0x15
 1640 807F              andi R24,240
 1642 85BB              out 0x15,R24
 1644                   .dbline 425
 1644           ;                         PORTC|=0x08;//VS3,VS4 "FWD"
 1644 AB9A              sbi 0x15,3
 1646                   .dbline 426
 1646           ;                         }
 1646                   .dbline 427
 1646           ;       break;
 1646                   .dbline 429
 1646           ;        }
 1646           ;     }
 1646                   .dbline 430
 1646           ;   }
 1646 03C0              xjmp L211
 1648           L210:
 1648                   .dbline 432
 1648           ;   else
 1648           ;    {
 1648                   .dbline 433
 1648           ;    PORTC&=0xF0;//switch all pulces off
 1648 85B3              in R24,0x15
 164A 807F              andi R24,240
 164C 85BB              out 0x15,R24
 164E                   .dbline 434
 164E           ;    }
 164E           L211:
 164E                   .dbline 435
 164E           ;  SEI();
 164E 7894              sei
 1650                   .dbline -2
 1650           L209:
 1650                   .dbline 0 ; func end
 1650 2990              ld R2,y+
 1652 2FBE              OUT 63,R2
 1654 E991              ld R30,y+
 1656 A991              ld R26,y+
 1658 8991              ld R24,y+
 165A 1991              ld R17,y+
 165C 0991              ld R16,y+
 165E 3990              ld R3,y+
 1660 2990              ld R2,y+
 1662 1895              reti
 1664                   .dbend
                        .area vector(rom, abs)
                        .org 16
 0010 0C94320B          jmp _timer2_comp_isr
                        .area text(rom, con, rel)
 1664                   .dbfile C:\COPYSI~1\ildar.c
 1664                   .dbfunc e timer2_comp_isr _timer2_comp_isr fV
                        .even
 1664           _timer2_comp_isr::
 1664 2A92              st -y,R2
 1666 8A93              st -y,R24
 1668 2FB6              IN R2,63
 166A 2A92              st -y,R2
 166C                   .dbline -1
 166C                   .dbline 440
 166C           ; }
 166C           ; 
 166C           ; #pragma interrupt_handler timer2_comp_isr:iv_TIM2_COMP
 166C           ; void timer2_comp_isr(void)
 166C           ; {
 166C                   .dbline 441
 166C           ; CLI();
 166C F894              cli
 166E                   .dbline 442
 166E           ; TCCR2=0x00;//stop T2
 166E 2224              clr R2
 1670 25BC              out 0x25,R2
 1672                   .dbline 443
 1672           ; TCNT2=0x00;//reset T2
 1672 24BC              out 0x24,R2
 1674                   .dbline 444
 1674           ; PORTD&=0x7F;
 1674 82B3              in R24,0x12
 1676 8F77              andi R24,127
 1678 82BB              out 0x12,R24
 167A                   .dbline 445
 167A           ; if((PIND&0x08)==0x08)
 167A 80B3              in R24,0x10
 167C 8870              andi R24,8
 167E 8830              cpi R24,8
 1680 41F4              brne L224
 1682           X126:
 1682                   .dbline 446
 1682           ;  {
 1682                   .dbline 447
 1682           ;  FWD=FWD_ref;
 1682 20904400          lds R2,_FWD_ref
 1686 20924200          sts _FWD,R2
 168A                   .dbline 448
 168A           ;  REV=REV_ref;
 168A 20904500          lds R2,_REV_ref
 168E 20924300          sts _REV,R2
 1692                   .dbline 449
 1692           ;  }
 1692           L224:
 1692                   .dbline 450
 1692           ; pause=0;
 1692 2224              clr R2
 1694 20924600          sts _pause,R2
 1698                   .dbline 451
 1698           ; SEI();
 1698 7894              sei
 169A                   .dbline -2
 169A           L223:
 169A                   .dbline 0 ; func end
 169A 2990              ld R2,y+
 169C 2FBE              OUT 63,R2
 169E 8991              ld R24,y+
 16A0 2990              ld R2,y+
 16A2 1895              reti
 16A4                   .dbend
                        .area vector(rom, abs)
                        .org 52
 0034 0C94520B          jmp _uart0_rx_isr
                        .area text(rom, con, rel)
 16A4                   .dbfile C:\COPYSI~1\ildar.c
 16A4                   .dbfunc e uart0_rx_isr _uart0_rx_isr fV
                        .area  func_lit(rom, con, rel)
 0000           L312:
 0000 930B              .word `L232
 0002 A40B              .word `L237
 0004 B50B              .word `L242
 0006 C60B              .word `L247
 0008 D70B              .word `L252
 000A E80B              .word `L257
 000C F90B              .word `L262
 000E 0A0C              .word `L267
 0010 1B0C              .word `L272
 0012 2C0C              .word `L277
 0014 3D0C              .word `L282
 0016 4E0C              .word `L287
 0018 5F0C              .word `L292
 001A 700C              .word `L297
 001C 810C              .word `L302
 001E 920C              .word `L307
                        .area text(rom, con, rel)
                        .even
 16A4           _uart0_rx_isr::
 16A4 1A92              st -y,R1
 16A6 2A92              st -y,R2
 16A8 3A92              st -y,R3
 16AA 7A92              st -y,R7
 16AC 0A93              st -y,R16
 16AE 1A93              st -y,R17
 16B0 8A93              st -y,R24
 16B2 9A93              st -y,R25
 16B4 AA93              st -y,R26
 16B6 EA93              st -y,R30
 16B8 FA93              st -y,R31
 16BA 1FB6              IN R1,63
 16BC 1A92              st -y,R1
 16BE                   .dbline -1
 16BE                   .dbline 456
 16BE           ; }
 16BE           ; 
 16BE           ; #pragma interrupt_handler uart0_rx_isr:iv_USART0_RXC
 16BE           ; void uart0_rx_isr(void)
 16BE           ; {
 16BE                   .dbline 457
 16BE           ;  CLI();
 16BE F894              cli
 16C0                   .dbline 458
 16C0           ;  uart_data=UDR;
 16C0 2CB0              in R2,0xc
 16C2 20925B00          sts _uart_data,R2
 16C6                   .dbline 459
 16C6           ;  global=uart_data;
 16C6 20924B00          sts _global,R2
 16CA                   .dbline 460
 16CA           ;  global=global>>7;
 16CA 2694              lsr R2
 16CC 2694              lsr R2
 16CE 2694              lsr R2
 16D0 2694              lsr R2
 16D2 2694              lsr R2
 16D4 2694              lsr R2
 16D6 2694              lsr R2
 16D8 20924B00          sts _global,R2
 16DC                   .dbline 461
 16DC           ;  global&=0x01;
 16DC 822D              mov R24,R2
 16DE 8170              andi R24,1
 16E0 80934B00          sts _global,R24
 16E4                   .dbline 462
 16E4           ;  if(global==1)
 16E4 8130              cpi R24,1
 16E6 09F0              breq X170
 16E8 30C1              xjmp L227
 16EA           X170:
 16EA           X127:
 16EA                   .dbline 463
 16EA           ;    {
 16EA                   .dbline 464
 16EA           ;    flag1_2=0;
 16EA 2224              clr R2
 16EC 20925D00          sts _flag1_2,R2
 16F0                   .dbline 465
 16F0           ;    post_1=0;
 16F0 20925600          sts _post_1,R2
 16F4                   .dbline 466
 16F4           ;  switch(post_2)
 16F4 00915700          lds R16,_post_2
 16F8 1127              clr R17
 16FA 0030              cpi R16,0
 16FC E0E0              ldi R30,0
 16FE 1E07              cpc R17,R30
 1700 0CF4              brge X171
 1702 5BC1              xjmp L228
 1704           X171:
 1704           X128:
 1704 8FE0              ldi R24,15
 1706 90E0              ldi R25,0
 1708 8017              cp R24,R16
 170A 9107              cpc R25,R17
 170C 0CF4              brge X172
 170E 55C1              xjmp L228
 1710           X172:
 1710           X129:
 1710 80E0              ldi R24,<L312
 1712 90E0              ldi R25,>L312
 1714 F801              movw R30,R16
 1716 EE0F              lsl R30
 1718 FF1F              rol R31
 171A E80F              add R30,R24
 171C F91F              adc R31,R25
 171E 2590              lpm R2,Z+
 1720 3490              lpm R3,Z
 1722 F101              movw R30,R2
 1724 0994               ijmp
 1726           X130:
 1726                   .dbfile C:\COPYSI~1\ildar.c
 1726                   .dbline 467
 1726           ;   {
 1726           L232:
 1726                   .dbline 469
 1726           ;   case 0:
 1726           ;                if(uart_data==0x99)            {post_2=1;}//start talking
 1726 80915B00          lds R24,_uart_data
 172A 8939              cpi R24,153
 172C 21F4              brne L233
 172E           X131:
 172E                   .dbline 469
 172E                   .dbline 469
 172E 81E0              ldi R24,1
 1730 80935700          sts _post_2,R24
 1734                   .dbline 469
 1734 42C1              xjmp L228
 1736           L233:
 1736                   .dbline 470
 1736           ;                else if(uart_data==0xFF)       {post_2=0;} 
 1736 80915B00          lds R24,_uart_data
 173A 8F3F              cpi R24,255
 173C 09F0              breq X173
 173E 3DC1              xjmp L228
 1740           X173:
 1740           X132:
 1740                   .dbline 470
 1740                   .dbline 470
 1740 2224              clr R2
 1742 20925700          sts _post_2,R2
 1746                   .dbline 470
 1746                   .dbline 471
 1746           ;   break;
 1746 39C1              xjmp L228
 1748           L237:
 1748                   .dbline 473
 1748           ;   case 1:
 1748           ;                if(uart_data==0x80)            {post_2=2;}//alfa1
 1748 80915B00          lds R24,_uart_data
 174C 8038              cpi R24,128
 174E 21F4              brne L238
 1750           X133:
 1750                   .dbline 473
 1750                   .dbline 473
 1750 82E0              ldi R24,2
 1752 80935700          sts _post_2,R24
 1756                   .dbline 473
 1756 31C1              xjmp L228
 1758           L238:
 1758                   .dbline 474
 1758           ;                else if(uart_data==0xFF)       {post_2=1;} 
 1758 80915B00          lds R24,_uart_data
 175C 8F3F              cpi R24,255
 175E 09F0              breq X174
 1760 2CC1              xjmp L228
 1762           X174:
 1762           X134:
 1762                   .dbline 474
 1762                   .dbline 474
 1762 81E0              ldi R24,1
 1764 80935700          sts _post_2,R24
 1768                   .dbline 474
 1768                   .dbline 475
 1768           ;   break;
 1768 28C1              xjmp L228
 176A           L242:
 176A                   .dbline 477
 176A           ;   case 2:
 176A           ;                if(uart_data==0x80)            {post_2=3;}//alfa2
 176A 80915B00          lds R24,_uart_data
 176E 8038              cpi R24,128
 1770 21F4              brne L243
 1772           X135:
 1772                   .dbline 477
 1772                   .dbline 477
 1772 83E0              ldi R24,3
 1774 80935700          sts _post_2,R24
 1778                   .dbline 477
 1778 20C1              xjmp L228
 177A           L243:
 177A                   .dbline 478
 177A           ;               else if(uart_data==0xFF)        {post_2=2;} 
 177A 80915B00          lds R24,_uart_data
 177E 8F3F              cpi R24,255
 1780 09F0              breq X175
 1782 1BC1              xjmp L228
 1784           X175:
 1784           X136:
 1784                   .dbline 478
 1784                   .dbline 478
 1784 82E0              ldi R24,2
 1786 80935700          sts _post_2,R24
 178A                   .dbline 478
 178A                   .dbline 479
 178A           ;   break;
 178A 17C1              xjmp L228
 178C           L247:
 178C                   .dbline 481
 178C           ;   case 3:
 178C           ;                if(uart_data==0x80)            {post_2=4;}//alfa3
 178C 80915B00          lds R24,_uart_data
 1790 8038              cpi R24,128
 1792 21F4              brne L248
 1794           X137:
 1794                   .dbline 481
 1794                   .dbline 481
 1794 84E0              ldi R24,4
 1796 80935700          sts _post_2,R24
 179A                   .dbline 481
 179A 0FC1              xjmp L228
 179C           L248:
 179C                   .dbline 482
 179C           ;                else if(uart_data==0xFF)       {post_2=3;} 
 179C 80915B00          lds R24,_uart_data
 17A0 8F3F              cpi R24,255
 17A2 09F0              breq X176
 17A4 0AC1              xjmp L228
 17A6           X176:
 17A6           X138:
 17A6                   .dbline 482
 17A6                   .dbline 482
 17A6 83E0              ldi R24,3
 17A8 80935700          sts _post_2,R24
 17AC                   .dbline 482
 17AC                   .dbline 483
 17AC           ;   break;
 17AC 06C1              xjmp L228
 17AE           L252:
 17AE                   .dbline 485
 17AE           ;   case 4:
 17AE           ;                if(uart_data==0x80)            {post_2=5;}//alfa4
 17AE 80915B00          lds R24,_uart_data
 17B2 8038              cpi R24,128
 17B4 21F4              brne L253
 17B6           X139:
 17B6                   .dbline 485
 17B6                   .dbline 485
 17B6 85E0              ldi R24,5
 17B8 80935700          sts _post_2,R24
 17BC                   .dbline 485
 17BC FEC0              xjmp L228
 17BE           L253:
 17BE                   .dbline 486
 17BE           ;                else if(uart_data==0xFF)       {post_2=4;} 
 17BE 80915B00          lds R24,_uart_data
 17C2 8F3F              cpi R24,255
 17C4 09F0              breq X177
 17C6 F9C0              xjmp L228
 17C8           X177:
 17C8           X140:
 17C8                   .dbline 486
 17C8                   .dbline 486
 17C8 84E0              ldi R24,4
 17CA 80935700          sts _post_2,R24
 17CE                   .dbline 486
 17CE                   .dbline 487
 17CE           ;   break;
 17CE F5C0              xjmp L228
 17D0           L257:
 17D0                   .dbline 489
 17D0           ;   case 5:
 17D0           ;                if(uart_data==0x90)            {post_2=6;}//current1
 17D0 80915B00          lds R24,_uart_data
 17D4 8039              cpi R24,144
 17D6 21F4              brne L258
 17D8           X141:
 17D8                   .dbline 489
 17D8                   .dbline 489
 17D8 86E0              ldi R24,6
 17DA 80935700          sts _post_2,R24
 17DE                   .dbline 489
 17DE EDC0              xjmp L228
 17E0           L258:
 17E0                   .dbline 490
 17E0           ;                else if(uart_data==0xFF)       {post_2=5;} 
 17E0 80915B00          lds R24,_uart_data
 17E4 8F3F              cpi R24,255
 17E6 09F0              breq X178
 17E8 E8C0              xjmp L228
 17EA           X178:
 17EA           X142:
 17EA                   .dbline 490
 17EA                   .dbline 490
 17EA 85E0              ldi R24,5
 17EC 80935700          sts _post_2,R24
 17F0                   .dbline 490
 17F0                   .dbline 491
 17F0           ;   break;
 17F0 E4C0              xjmp L228
 17F2           L262:
 17F2                   .dbline 493
 17F2           ;   case 6:
 17F2           ;                if(uart_data==0x90)            {post_2=7;}//current2
 17F2 80915B00          lds R24,_uart_data
 17F6 8039              cpi R24,144
 17F8 21F4              brne L263
 17FA           X143:
 17FA                   .dbline 493
 17FA                   .dbline 493
 17FA 87E0              ldi R24,7
 17FC 80935700          sts _post_2,R24
 1800                   .dbline 493
 1800 DCC0              xjmp L228
 1802           L263:
 1802                   .dbline 494
 1802           ;               else if(uart_data==0xFF)        {post_2=6;} 
 1802 80915B00          lds R24,_uart_data
 1806 8F3F              cpi R24,255
 1808 09F0              breq X179
 180A D7C0              xjmp L228
 180C           X179:
 180C           X144:
 180C                   .dbline 494
 180C                   .dbline 494
 180C 86E0              ldi R24,6
 180E 80935700          sts _post_2,R24
 1812                   .dbline 494
 1812                   .dbline 495
 1812           ;   break;
 1812 D3C0              xjmp L228
 1814           L267:
 1814                   .dbline 497
 1814           ;   case 7:
 1814           ;                if(uart_data==0x90)            {post_2=8;}//current3
 1814 80915B00          lds R24,_uart_data
 1818 8039              cpi R24,144
 181A 21F4              brne L268
 181C           X145:
 181C                   .dbline 497
 181C                   .dbline 497
 181C 88E0              ldi R24,8
 181E 80935700          sts _post_2,R24
 1822                   .dbline 497
 1822 CBC0              xjmp L228
 1824           L268:
 1824                   .dbline 498
 1824           ;               else if(uart_data==0xFF)        {post_2=7;} 
 1824 80915B00          lds R24,_uart_data
 1828 8F3F              cpi R24,255
 182A 09F0              breq X180
 182C C6C0              xjmp L228
 182E           X180:
 182E           X146:
 182E                   .dbline 498
 182E                   .dbline 498
 182E 87E0              ldi R24,7
 1830 80935700          sts _post_2,R24
 1834                   .dbline 498
 1834                   .dbline 499
 1834           ;   break;
 1834 C2C0              xjmp L228
 1836           L272:
 1836                   .dbline 501
 1836           ;   case 8:
 1836           ;                if(uart_data==0x90)            {post_2=9;}//current4
 1836 80915B00          lds R24,_uart_data
 183A 8039              cpi R24,144
 183C 21F4              brne L273
 183E           X147:
 183E                   .dbline 501
 183E                   .dbline 501
 183E 89E0              ldi R24,9
 1840 80935700          sts _post_2,R24
 1844                   .dbline 501
 1844 BAC0              xjmp L228
 1846           L273:
 1846                   .dbline 502
 1846           ;                else if(uart_data==0xFF)       {post_2=8;} 
 1846 80915B00          lds R24,_uart_data
 184A 8F3F              cpi R24,255
 184C 09F0              breq X181
 184E B5C0              xjmp L228
 1850           X181:
 1850           X148:
 1850                   .dbline 502
 1850                   .dbline 502
 1850 88E0              ldi R24,8
 1852 80935700          sts _post_2,R24
 1856                   .dbline 502
 1856                   .dbline 503
 1856           ;   break;
 1856 B1C0              xjmp L228
 1858           L277:
 1858                   .dbline 505
 1858           ;   case 9:
 1858           ;                if(uart_data==0x90)            {post_2=10;}//sign current
 1858 80915B00          lds R24,_uart_data
 185C 8039              cpi R24,144
 185E 21F4              brne L278
 1860           X149:
 1860                   .dbline 505
 1860                   .dbline 505
 1860 8AE0              ldi R24,10
 1862 80935700          sts _post_2,R24
 1866                   .dbline 505
 1866 A9C0              xjmp L228
 1868           L278:
 1868                   .dbline 506
 1868           ;                else if(uart_data==0xFF)       {post_2=9;} 
 1868 80915B00          lds R24,_uart_data
 186C 8F3F              cpi R24,255
 186E 09F0              breq X182
 1870 A4C0              xjmp L228
 1872           X182:
 1872           X150:
 1872                   .dbline 506
 1872                   .dbline 506
 1872 89E0              ldi R24,9
 1874 80935700          sts _post_2,R24
 1878                   .dbline 506
 1878                   .dbline 507
 1878           ;   break;
 1878 A0C0              xjmp L228
 187A           L282:
 187A                   .dbline 509
 187A           ;   case 10:
 187A           ;                if(uart_data==0xA0)            {post_2=11;}//voltage1
 187A 80915B00          lds R24,_uart_data
 187E 803A              cpi R24,160
 1880 21F4              brne L283
 1882           X151:
 1882                   .dbline 509
 1882                   .dbline 509
 1882 8BE0              ldi R24,11
 1884 80935700          sts _post_2,R24
 1888                   .dbline 509
 1888 98C0              xjmp L228
 188A           L283:
 188A                   .dbline 510
 188A           ;                else if(uart_data==0xFF)       {post_2=10;} 
 188A 80915B00          lds R24,_uart_data
 188E 8F3F              cpi R24,255
 1890 09F0              breq X183
 1892 93C0              xjmp L228
 1894           X183:
 1894           X152:
 1894                   .dbline 510
 1894                   .dbline 510
 1894 8AE0              ldi R24,10
 1896 80935700          sts _post_2,R24
 189A                   .dbline 510
 189A                   .dbline 511
 189A           ;   break;
 189A 8FC0              xjmp L228
 189C           L287:
 189C                   .dbline 513
 189C           ;   case 11:
 189C           ;               if(uart_data==0xA0)             {post_2=12;}//voltage2
 189C 80915B00          lds R24,_uart_data
 18A0 803A              cpi R24,160
 18A2 21F4              brne L288
 18A4           X153:
 18A4                   .dbline 513
 18A4                   .dbline 513
 18A4 8CE0              ldi R24,12
 18A6 80935700          sts _post_2,R24
 18AA                   .dbline 513
 18AA 87C0              xjmp L228
 18AC           L288:
 18AC                   .dbline 514
 18AC           ;               else if(uart_data==0xFF)        {post_2=11;}   
 18AC 80915B00          lds R24,_uart_data
 18B0 8F3F              cpi R24,255
 18B2 09F0              breq X184
 18B4 82C0              xjmp L228
 18B6           X184:
 18B6           X154:
 18B6                   .dbline 514
 18B6                   .dbline 514
 18B6 8BE0              ldi R24,11
 18B8 80935700          sts _post_2,R24
 18BC                   .dbline 514
 18BC                   .dbline 515
 18BC           ;   break;
 18BC 7EC0              xjmp L228
 18BE           L292:
 18BE                   .dbline 517
 18BE           ;   case 12:
 18BE           ;               if(uart_data==0xA0)             {post_2=13;}//voltage3
 18BE 80915B00          lds R24,_uart_data
 18C2 803A              cpi R24,160
 18C4 21F4              brne L293
 18C6           X155:
 18C6                   .dbline 517
 18C6                   .dbline 517
 18C6 8DE0              ldi R24,13
 18C8 80935700          sts _post_2,R24
 18CC                   .dbline 517
 18CC 76C0              xjmp L228
 18CE           L293:
 18CE                   .dbline 518
 18CE           ;               else if(uart_data==0xFF)        {post_2=12;}   
 18CE 80915B00          lds R24,_uart_data
 18D2 8F3F              cpi R24,255
 18D4 09F0              breq X185
 18D6 71C0              xjmp L228
 18D8           X185:
 18D8           X156:
 18D8                   .dbline 518
 18D8                   .dbline 518
 18D8 8CE0              ldi R24,12
 18DA 80935700          sts _post_2,R24
 18DE                   .dbline 518
 18DE                   .dbline 519
 18DE           ;   break;
 18DE 6DC0              xjmp L228
 18E0           L297:
 18E0                   .dbline 521
 18E0           ;   case 13:
 18E0           ;               if(uart_data==0xA0)             {post_2=14;}//voltage4
 18E0 80915B00          lds R24,_uart_data
 18E4 803A              cpi R24,160
 18E6 21F4              brne L298
 18E8           X157:
 18E8                   .dbline 521
 18E8                   .dbline 521
 18E8 8EE0              ldi R24,14
 18EA 80935700          sts _post_2,R24
 18EE                   .dbline 521
 18EE 65C0              xjmp L228
 18F0           L298:
 18F0                   .dbline 522
 18F0           ;               else if(uart_data==0xFF)        {post_2=13;}   
 18F0 80915B00          lds R24,_uart_data
 18F4 8F3F              cpi R24,255
 18F6 09F0              breq X186
 18F8 60C0              xjmp L228
 18FA           X186:
 18FA           X158:
 18FA                   .dbline 522
 18FA                   .dbline 522
 18FA 8DE0              ldi R24,13
 18FC 80935700          sts _post_2,R24
 1900                   .dbline 522
 1900                   .dbline 523
 1900           ;   break;
 1900 5CC0              xjmp L228
 1902           L302:
 1902                   .dbline 525
 1902           ;   case 14:
 1902           ;               if(uart_data==0xA0)             {post_2=15;}//sign voltage
 1902 80915B00          lds R24,_uart_data
 1906 803A              cpi R24,160
 1908 21F4              brne L303
 190A           X159:
 190A                   .dbline 525
 190A                   .dbline 525
 190A 8FE0              ldi R24,15
 190C 80935700          sts _post_2,R24
 1910                   .dbline 525
 1910 54C0              xjmp L228
 1912           L303:
 1912                   .dbline 526
 1912           ;               else if(uart_data==0xFF)        {post_2=14;}   
 1912 80915B00          lds R24,_uart_data
 1916 8F3F              cpi R24,255
 1918 09F0              breq X187
 191A 4FC0              xjmp L228
 191C           X187:
 191C           X160:
 191C                   .dbline 526
 191C                   .dbline 526
 191C 8EE0              ldi R24,14
 191E 80935700          sts _post_2,R24
 1922                   .dbline 526
 1922                   .dbline 527
 1922           ;   break;
 1922 4BC0              xjmp L228
 1924           L307:
 1924                   .dbline 529
 1924           ;   case 15:
 1924           ;          if(uart_data==0xCC)          {post_2=0;flag_2=0;}//stop talking
 1924 80915B00          lds R24,_uart_data
 1928 8C3C              cpi R24,204
 192A 31F4              brne L308
 192C           X161:
 192C                   .dbline 529
 192C                   .dbline 529
 192C 2224              clr R2
 192E 20925700          sts _post_2,R2
 1932                   .dbline 529
 1932 20925500          sts _flag_2,R2
 1936                   .dbline 529
 1936 41C0              xjmp L228
 1938           L308:
 1938                   .dbline 530
 1938           ;          else if(uart_data==0xFF)     {post_2=15;} 
 1938 80915B00          lds R24,_uart_data
 193C 8F3F              cpi R24,255
 193E 09F0              breq X188
 1940 3CC0              xjmp L228
 1942           X188:
 1942           X162:
 1942                   .dbline 530
 1942                   .dbline 530
 1942 8FE0              ldi R24,15
 1944 80935700          sts _post_2,R24
 1948                   .dbline 530
 1948                   .dbline 531
 1948           ;   break;
 1948                   .dbline 533
 1948           ;   }
 1948           ;   }
 1948 38C0              xjmp L228
 194A           L227:
 194A                   .dbline 535
 194A           ;   else 
 194A           ;  {
 194A                   .dbline 536
 194A           ;  flag1_1=0;
 194A 2224              clr R2
 194C 20925C00          sts _flag1_1,R2
 1950                   .dbline 537
 1950           ;  post_2=0;
 1950 20925700          sts _post_2,R2
 1954                   .dbline 538
 1954           ;  if(uart_data==0x77)          {post_1=0;}//questioning of button
 1954 80915B00          lds R24,_uart_data
 1958 8737              cpi R24,119
 195A 19F4              brne L313
 195C           X163:
 195C                   .dbline 538
 195C                   .dbline 538
 195C 20925600          sts _post_1,R2
 1960                   .dbline 538
 1960 2CC0              xjmp L314
 1962           L313:
 1962                   .dbline 539
 1962           ;  else {
 1962                   .dbline 540
 1962           ;  switch(post_1)
 1962 00915600          lds R16,_post_1
 1966 1127              clr R17
 1968 0030              cpi R16,0
 196A 0107              cpc R16,R17
 196C 29F0              breq L318
 196E           X164:
 196E 0130              cpi R16,1
 1970 E0E0              ldi R30,0
 1972 1E07              cpc R17,R30
 1974 89F0              breq L323
 1976           X165:
 1976 21C0              xjmp L315
 1978           L318:
 1978                   .dbline 542
 1978           ;   {
 1978           ;   case 0:{
 1978                   .dbline 543
 1978           ;                if(uart_data==0x44)            {post_1=1; }//high byte
 1978 80915B00          lds R24,_uart_data
 197C 8434              cpi R24,68
 197E 21F4              brne L319
 1980           X166:
 1980                   .dbline 543
 1980                   .dbline 543
 1980 81E0              ldi R24,1
 1982 80935600          sts _post_1,R24
 1986                   .dbline 543
 1986 19C0              xjmp L316
 1988           L319:
 1988                   .dbline 544
 1988           ;                else if(uart_data==0x0F)       {post_1=0;} }
 1988 80915B00          lds R24,_uart_data
 198C 8F30              cpi R24,15
 198E A9F4              brne L316
 1990           X167:
 1990                   .dbline 544
 1990                   .dbline 544
 1990 2224              clr R2
 1992 20925600          sts _post_1,R2
 1996                   .dbline 544
 1996                   .dbline 544
 1996                   .dbline 545
 1996           ;   break;
 1996 11C0              xjmp L316
 1998           L323:
 1998                   .dbline 546
 1998           ;   case 1:{
 1998                   .dbline 547
 1998           ;                if(uart_data==0x55)            {post_1=0; flag_1=0;}//low byte
 1998 80915B00          lds R24,_uart_data
 199C 8535              cpi R24,85
 199E 31F4              brne L324
 19A0           X168:
 19A0                   .dbline 547
 19A0                   .dbline 547
 19A0 2224              clr R2
 19A2 20925600          sts _post_1,R2
 19A6                   .dbline 547
 19A6 20925400          sts _flag_1,R2
 19AA                   .dbline 547
 19AA 07C0              xjmp L316
 19AC           L324:
 19AC                   .dbline 548
 19AC           ;                else if(uart_data==0x0F)       {post_1=1; } }
 19AC 80915B00          lds R24,_uart_data
 19B0 8F30              cpi R24,15
 19B2 19F4              brne L316
 19B4           X169:
 19B4                   .dbline 548
 19B4                   .dbline 548
 19B4 81E0              ldi R24,1
 19B6 80935600          sts _post_1,R24
 19BA                   .dbline 548
 19BA                   .dbline 548
 19BA                   .dbline 549
 19BA           ;   break;
 19BA           L315:
 19BA           L316:
 19BA                   .dbline 551
 19BA           ;  }
 19BA           ;  }
 19BA           L314:
 19BA                   .dbline 552
 19BA           ;  }
 19BA           L228:
 19BA                   .dbline 553
 19BA           ;  SEI();
 19BA 7894              sei
 19BC                   .dbline -2
 19BC           L226:
 19BC                   .dbline 0 ; func end
 19BC 1990              ld R1,y+
 19BE 1FBE              OUT 63,R1
 19C0 F991              ld R31,y+
 19C2 E991              ld R30,y+
 19C4 A991              ld R26,y+
 19C6 9991              ld R25,y+
 19C8 8991              ld R24,y+
 19CA 1991              ld R17,y+
 19CC 0991              ld R16,y+
 19CE 7990              ld R7,y+
 19D0 3990              ld R3,y+
 19D2 2990              ld R2,y+
 19D4 1990              ld R1,y+
 19D6 1895              reti
 19D8                   .dbend
 19D8                   .dbfunc e Progr _Progr fV
                        .even
 19D8           _Progr::
 19D8                   .dbline -1
 19D8                   .dbline 556
 19D8           ; }
 19D8           ; void Progr(void)                                                                                                   
 19D8           ; {
 19D8                   .dbline 557
 19D8           ; if((PINB&0x01)==0x00) s=1;
 19D8 B099              sbic 0x16,0
 19DA 04C0              rjmp L329
 19DC           X189:
 19DC                   .dbline 557
 19DC 81E0              ldi R24,1
 19DE 80930900          sts _s,R24
 19E2 29C0              xjmp L330
 19E4           L329:
 19E4                   .dbline 558
 19E4           ; else { if(s==1)
 19E4                   .dbline 558
 19E4 80910900          lds R24,_s
 19E8 8130              cpi R24,1
 19EA 29F5              brne L331
 19EC           X190:
 19EC                   .dbline 559
 19EC           ;      {
 19EC                   .dbline 560
 19EC           ;        flag_1=1;
 19EC 81E0              ldi R24,1
 19EE 80935400          sts _flag_1,R24
 19F2                   .dbline 561
 19F2           ;        flag1_1=0;
 19F2 2224              clr R2
 19F4 20925C00          sts _flag1_1,R2
 19F8                   .dbline 562
 19F8           ;        post_1=4;
 19F8 84E0              ldi R24,4
 19FA 80935600          sts _post_1,R24
 19FE                   .dbline 563
 19FE           ;        if(t==7) {t=0; s=0;}
 19FE 80914D00          lds R24,_t
 1A02 90914E00          lds R25,_t+1
 1A06 8730              cpi R24,7
 1A08 E0E0              ldi R30,0
 1A0A 9E07              cpc R25,R30
 1A0C 41F4              brne L333
 1A0E           X191:
 1A0E                   .dbline 563
 1A0E                   .dbline 563
 1A0E 3324              clr R3
 1A10 30924E00          sts _t+1,R3
 1A14 20924D00          sts _t,R2
 1A18                   .dbline 563
 1A18 20920900          sts _s,R2
 1A1C                   .dbline 563
 1A1C 0CC0              xjmp L334
 1A1E           L333:
 1A1E                   .dbline 564
 1A1E           ;        else {t=t+1; s=0;}
 1A1E                   .dbline 564
 1A1E 80914D00          lds R24,_t
 1A22 90914E00          lds R25,_t+1
 1A26 0196              adiw R24,1
 1A28 90934E00          sts _t+1,R25
 1A2C 80934D00          sts _t,R24
 1A30                   .dbline 564
 1A30 2224              clr R2
 1A32 20920900          sts _s,R2
 1A36                   .dbline 564
 1A36           L334:
 1A36                   .dbline 565
 1A36           ;        }}
 1A36           L331:
 1A36                   .dbline 565
 1A36           L330:
 1A36                   .dbline -2
 1A36           L328:
 1A36                   .dbline 0 ; func end
 1A36 0895              ret
 1A38                   .dbend
 1A38                   .dbfunc e Esc _Esc fV
                        .even
 1A38           _Esc::
 1A38                   .dbline -1
 1A38                   .dbline 568
 1A38           ; }
 1A38           ; void Esc(void)
 1A38           ; {
 1A38                   .dbline 569
 1A38           ; if((PINB&0x02)==0x00) o=1;
 1A38 B199              sbic 0x16,1
 1A3A 04C0              rjmp L336
 1A3C           X192:
 1A3C                   .dbline 569
 1A3C 81E0              ldi R24,1
 1A3E 80930A00          sts _o,R24
 1A42 2BC0              xjmp L337
 1A44           L336:
 1A44                   .dbline 570
 1A44           ; else { if(o==1)
 1A44                   .dbline 570
 1A44 80910A00          lds R24,_o
 1A48 8130              cpi R24,1
 1A4A 39F5              brne L338
 1A4C           X193:
 1A4C                   .dbline 571
 1A4C           ;      {
 1A4C                   .dbline 572
 1A4C           ;         flag_1=1;
 1A4C 81E0              ldi R24,1
 1A4E 80935400          sts _flag_1,R24
 1A52                   .dbline 573
 1A52           ;         flag1_1=0;
 1A52 2224              clr R2
 1A54 20925C00          sts _flag1_1,R2
 1A58                   .dbline 574
 1A58           ;         post_1=4;
 1A58 84E0              ldi R24,4
 1A5A 80935600          sts _post_1,R24
 1A5E                   .dbline 575
 1A5E           ;        if(t==0) {t=7; o=0;}
 1A5E 20904D00          lds R2,_t
 1A62 30904E00          lds R3,_t+1
 1A66 2220              tst R2
 1A68 61F4              brne L340
 1A6A 3320              tst R3
 1A6C 51F4              brne L340
 1A6E           X194:
 1A6E                   .dbline 575
 1A6E                   .dbline 575
 1A6E 87E0              ldi R24,7
 1A70 90E0              ldi R25,0
 1A72 90934E00          sts _t+1,R25
 1A76 80934D00          sts _t,R24
 1A7A                   .dbline 575
 1A7A 2224              clr R2
 1A7C 20920A00          sts _o,R2
 1A80                   .dbline 575
 1A80 0CC0              xjmp L341
 1A82           L340:
 1A82                   .dbline 576
 1A82           ;        else {t=t-1; o=0;}
 1A82                   .dbline 576
 1A82 80914D00          lds R24,_t
 1A86 90914E00          lds R25,_t+1
 1A8A 0197              sbiw R24,1
 1A8C 90934E00          sts _t+1,R25
 1A90 80934D00          sts _t,R24
 1A94                   .dbline 576
 1A94 2224              clr R2
 1A96 20920A00          sts _o,R2
 1A9A                   .dbline 576
 1A9A           L341:
 1A9A                   .dbline 577
 1A9A           ;        }}
 1A9A           L338:
 1A9A                   .dbline 577
 1A9A           L337:
 1A9A                   .dbline -2
 1A9A           L335:
 1A9A                   .dbline 0 ; func end
 1A9A 0895              ret
 1A9C                   .dbend
 1A9C                   .dbfunc e Vverh _Vverh fV
                        .even
 1A9C           _Vverh::
 1A9C                   .dbline -1
 1A9C                   .dbline 580
 1A9C           ; }
 1A9C           ; void Vverh(void)
 1A9C           ; {
 1A9C                   .dbline 581
 1A9C           ; if((PINB&0x04)==0x00) p=1;
 1A9C B299              sbic 0x16,2
 1A9E 04C0              rjmp L343
 1AA0           X195:
 1AA0                   .dbline 581
 1AA0 81E0              ldi R24,1
 1AA2 80930B00          sts _p,R24
 1AA6 08C0              xjmp L344
 1AA8           L343:
 1AA8                   .dbline 582
 1AA8           ; else { if(p==1)
 1AA8                   .dbline 582
 1AA8 80910B00          lds R24,_p
 1AAC 8130              cpi R24,1
 1AAE 21F4              brne L345
 1AB0           X196:
 1AB0                   .dbline 583
 1AB0           ;      {
 1AB0                   .dbline 584
 1AB0           ;        k=1;
 1AB0 81E0              ldi R24,1
 1AB2 80930800          sts _k,R24
 1AB6                   .dbline 585
 1AB6           ;        obrabotka_t();
 1AB6 10D0              xcall _obrabotka_t
 1AB8                   .dbline 586
 1AB8           ;        }}
 1AB8           L345:
 1AB8                   .dbline 586
 1AB8           L344:
 1AB8                   .dbline -2
 1AB8           L342:
 1AB8                   .dbline 0 ; func end
 1AB8 0895              ret
 1ABA                   .dbend
 1ABA                   .dbfunc e Vniz _Vniz fV
                        .even
 1ABA           _Vniz::
 1ABA                   .dbline -1
 1ABA                   .dbline 589
 1ABA           ; }
 1ABA           ; void Vniz(void)
 1ABA           ; {
 1ABA                   .dbline 590
 1ABA           ; if((PINB&0x08)==0x00) r=1;
 1ABA B399              sbic 0x16,3
 1ABC 04C0              rjmp L348
 1ABE           X197:
 1ABE                   .dbline 590
 1ABE 81E0              ldi R24,1
 1AC0 80930C00          sts _r,R24
 1AC4 08C0              xjmp L349
 1AC6           L348:
 1AC6                   .dbline 591
 1AC6           ; else { if(r==1)
 1AC6                   .dbline 591
 1AC6 80910C00          lds R24,_r
 1ACA 8130              cpi R24,1
 1ACC 21F4              brne L350
 1ACE           X198:
 1ACE                   .dbline 592
 1ACE           ;      {
 1ACE                   .dbline 593
 1ACE           ;        k=2;
 1ACE 82E0              ldi R24,2
 1AD0 80930800          sts _k,R24
 1AD4                   .dbline 594
 1AD4           ;        obrabotka_t();
 1AD4 01D0              xcall _obrabotka_t
 1AD6                   .dbline 595
 1AD6           ;        }}
 1AD6           L350:
 1AD6                   .dbline 595
 1AD6           L349:
 1AD6                   .dbline -2
 1AD6           L347:
 1AD6                   .dbline 0 ; func end
 1AD6 0895              ret
 1AD8                   .dbend
 1AD8                   .dbfunc e obrabotka_t _obrabotka_t fV
                        .even
 1AD8           _obrabotka_t::
 1AD8                   .dbline -1
 1AD8                   .dbline 598
 1AD8           ; }
 1AD8           ; void obrabotka_t(void)
 1AD8           ; {
 1AD8                   .dbline 599
 1AD8           ;      flag_1=1;
 1AD8 81E0              ldi R24,1
 1ADA 80935400          sts _flag_1,R24
 1ADE                   .dbline 600
 1ADE           ;      flag1_1=0;
 1ADE 2224              clr R2
 1AE0 20925C00          sts _flag1_1,R2
 1AE4                   .dbline 601
 1AE4           ;        post_1=4;
 1AE4 84E0              ldi R24,4
 1AE6 80935600          sts _post_1,R24
 1AEA                   .dbline 602
 1AEA           ;      switch(t)
 1AEA 20904D00          lds R2,_t
 1AEE 30904E00          lds R3,_t+1
 1AF2 2220              tst R2
 1AF4 11F4              brne X199
 1AF6 3320              tst R3
 1AF8 29F1              breq L355
 1AFA           X199:
 1AFA C101              movw R24,R2
 1AFC 8130              cpi R24,1
 1AFE E0E0              ldi R30,0
 1B00 9E07              cpc R25,R30
 1B02 09F4              brne X242
 1B04 5FC0              xjmp L365
 1B06           X242:
 1B06           X200:
 1B06 8230              cpi R24,2
 1B08 E0E0              ldi R30,0
 1B0A 9E07              cpc R25,R30
 1B0C 09F4              brne X243
 1B0E ACC0              xjmp L377
 1B10           X243:
 1B10           X201:
 1B10 8330              cpi R24,3
 1B12 E0E0              ldi R30,0
 1B14 9E07              cpc R25,R30
 1B16 09F4              brne X244
 1B18 E7C0              xjmp L387
 1B1A           X244:
 1B1A           X202:
 1B1A 8430              cpi R24,4
 1B1C E0E0              ldi R30,0
 1B1E 9E07              cpc R25,R30
 1B20 09F4              brne X245
 1B22 34C1              xjmp L399
 1B24           X245:
 1B24           X203:
 1B24 8530              cpi R24,5
 1B26 E0E0              ldi R30,0
 1B28 9E07              cpc R25,R30
 1B2A 09F4              brne X246
 1B2C 6FC1              xjmp L409
 1B2E           X246:
 1B2E           X204:
 1B2E 8630              cpi R24,6
 1B30 E0E0              ldi R30,0
 1B32 9E07              cpc R25,R30
 1B34 09F4              brne X247
 1B36 BCC1              xjmp L421
 1B38           X247:
 1B38           X205:
 1B38 8730              cpi R24,7
 1B3A E0E0              ldi R30,0
 1B3C 9E07              cpc R25,R30
 1B3E 09F4              brne X248
 1B40 F5C1              xjmp L431
 1B42           X248:
 1B42           X206:
 1B42 31C2              xjmp L353
 1B44           L355:
 1B44                   .dbline 604
 1B44           ;             {
 1B44           ;                 case 0: { switch(k)
 1B44                   .dbline 604
 1B44 00910800          lds R16,_k
 1B48 1127              clr R17
 1B4A 0130              cpi R16,1
 1B4C E0E0              ldi R30,0
 1B4E 1E07              cpc R17,R30
 1B50 29F0              breq L359
 1B52           X207:
 1B52 0230              cpi R16,2
 1B54 E0E0              ldi R30,0
 1B56 1E07              cpc R17,R30
 1B58 D9F0              breq L362
 1B5A           X208:
 1B5A 25C2              xjmp L354
 1B5C           L359:
 1B5C                   .dbline 606
 1B5C           ;                             {
 1B5C           ;                                         case 1: {
 1B5C                   .dbline 607
 1B5C           ;                                                  if(kprop_i==32) {p=0;}
 1B5C 80916400          lds R24,_kprop_i
 1B60 90916500          lds R25,_kprop_i+1
 1B64 8032              cpi R24,32
 1B66 E0E0              ldi R30,0
 1B68 9E07              cpc R25,R30
 1B6A 21F4              brne L360
 1B6C           X209:
 1B6C                   .dbline 607
 1B6C                   .dbline 607
 1B6C 2224              clr R2
 1B6E 20920B00          sts _p,R2
 1B72                   .dbline 607
 1B72 19C2              xjmp L354
 1B74           L360:
 1B74                   .dbline 608
 1B74           ;                                                          else{kprop_i=kprop_i<<1;p=0;}
 1B74                   .dbline 608
 1B74 20906400          lds R2,_kprop_i
 1B78 30906500          lds R3,_kprop_i+1
 1B7C 220C              lsl R2
 1B7E 331C              rol R3
 1B80 30926500          sts _kprop_i+1,R3
 1B84 20926400          sts _kprop_i,R2
 1B88                   .dbline 608
 1B88 2224              clr R2
 1B8A 20920B00          sts _p,R2
 1B8E                   .dbline 608
 1B8E                   .dbline 609
 1B8E           ;                                                          }
 1B8E                   .dbline 610
 1B8E           ;                                                          break;
 1B8E 0BC2              xjmp L354
 1B90           L362:
 1B90                   .dbline 611
 1B90           ;                                         case 2: {
 1B90                   .dbline 612
 1B90           ;                                                  if(kprop_i==1) {r=0;}
 1B90 80916400          lds R24,_kprop_i
 1B94 90916500          lds R25,_kprop_i+1
 1B98 8130              cpi R24,1
 1B9A E0E0              ldi R30,0
 1B9C 9E07              cpc R25,R30
 1B9E 21F4              brne L363
 1BA0           X210:
 1BA0                   .dbline 612
 1BA0                   .dbline 612
 1BA0 2224              clr R2
 1BA2 20920C00          sts _r,R2
 1BA6                   .dbline 612
 1BA6 FFC1              xjmp L354
 1BA8           L363:
 1BA8                   .dbline 613
 1BA8           ;                                                  else {kprop_i=kprop_i>>1;r=0;}
 1BA8                   .dbline 613
 1BA8 20906400          lds R2,_kprop_i
 1BAC 30906500          lds R3,_kprop_i+1
 1BB0 3694              lsr R3
 1BB2 2794              ror R2
 1BB4 30926500          sts _kprop_i+1,R3
 1BB8 20926400          sts _kprop_i,R2
 1BBC                   .dbline 613
 1BBC 2224              clr R2
 1BBE 20920C00          sts _r,R2
 1BC2                   .dbline 613
 1BC2                   .dbline 614
 1BC2           ;                                                          }
 1BC2                   .dbline 615
 1BC2           ;                                                          break;
 1BC2                   .dbline 616
 1BC2           ;                       }}
 1BC2                   .dbline 617
 1BC2           ;                                         break;
 1BC2 F1C1              xjmp L354
 1BC4           L365:
 1BC4                   .dbline 618
 1BC4           ;                 case 1: { switch(k)
 1BC4                   .dbline 618
 1BC4 00910800          lds R16,_k
 1BC8 1127              clr R17
 1BCA 0130              cpi R16,1
 1BCC E0E0              ldi R30,0
 1BCE 1E07              cpc R17,R30
 1BD0 29F0              breq L369
 1BD2           X211:
 1BD2 0230              cpi R16,2
 1BD4 E0E0              ldi R30,0
 1BD6 1E07              cpc R17,R30
 1BD8 D9F0              breq L372
 1BDA           X212:
 1BDA E5C1              xjmp L354
 1BDC           L369:
 1BDC                   .dbline 620
 1BDC           ;                             {
 1BDC           ;                                         case 1: {
 1BDC                   .dbline 621
 1BDC           ;                                                  if(tinteg_i==0) {p=0;}
 1BDC 20906600          lds R2,_tinteg_i
 1BE0 30906700          lds R3,_tinteg_i+1
 1BE4 2220              tst R2
 1BE6 31F4              brne L370
 1BE8 3320              tst R3
 1BEA 21F4              brne L370
 1BEC           X213:
 1BEC                   .dbline 621
 1BEC                   .dbline 621
 1BEC 2224              clr R2
 1BEE 20920B00          sts _p,R2
 1BF2                   .dbline 621
 1BF2 D9C1              xjmp L354
 1BF4           L370:
 1BF4                   .dbline 622
 1BF4           ;                                                          else {tinteg_i=tinteg_i>>1; p=0;}
 1BF4                   .dbline 622
 1BF4 20906600          lds R2,_tinteg_i
 1BF8 30906700          lds R3,_tinteg_i+1
 1BFC 3694              lsr R3
 1BFE 2794              ror R2
 1C00 30926700          sts _tinteg_i+1,R3
 1C04 20926600          sts _tinteg_i,R2
 1C08                   .dbline 622
 1C08 2224              clr R2
 1C0A 20920B00          sts _p,R2
 1C0E                   .dbline 622
 1C0E                   .dbline 623
 1C0E           ;                                                  }
 1C0E                   .dbline 624
 1C0E           ;                                                          break;
 1C0E CBC1              xjmp L354
 1C10           L372:
 1C10                   .dbline 625
 1C10           ;                                         case 2: {if(tinteg_i==0) {tinteg_i=tinteg_i+1; r=0;}
 1C10                   .dbline 625
 1C10 20906600          lds R2,_tinteg_i
 1C14 30906700          lds R3,_tinteg_i+1
 1C18 2220              tst R2
 1C1A 61F4              brne L373
 1C1C 3320              tst R3
 1C1E 51F4              brne L373
 1C20           X214:
 1C20                   .dbline 625
 1C20                   .dbline 625
 1C20 C101              movw R24,R2
 1C22 0196              adiw R24,1
 1C24 90936700          sts _tinteg_i+1,R25
 1C28 80936600          sts _tinteg_i,R24
 1C2C                   .dbline 625
 1C2C 2224              clr R2
 1C2E 20920C00          sts _r,R2
 1C32                   .dbline 625
 1C32 B9C1              xjmp L354
 1C34           L373:
 1C34                   .dbline 626
 1C34           ;                                                  else if(tinteg_i==128) {r=0;}
 1C34 80916600          lds R24,_tinteg_i
 1C38 90916700          lds R25,_tinteg_i+1
 1C3C 8038              cpi R24,128
 1C3E E0E0              ldi R30,0
 1C40 9E07              cpc R25,R30
 1C42 21F4              brne L375
 1C44           X215:
 1C44                   .dbline 626
 1C44                   .dbline 626
 1C44 2224              clr R2
 1C46 20920C00          sts _r,R2
 1C4A                   .dbline 626
 1C4A ADC1              xjmp L354
 1C4C           L375:
 1C4C                   .dbline 627
 1C4C           ;                                                  else {tinteg_i=tinteg_i<<1;r=0;}
 1C4C                   .dbline 627
 1C4C 20906600          lds R2,_tinteg_i
 1C50 30906700          lds R3,_tinteg_i+1
 1C54 220C              lsl R2
 1C56 331C              rol R3
 1C58 30926700          sts _tinteg_i+1,R3
 1C5C 20926600          sts _tinteg_i,R2
 1C60                   .dbline 627
 1C60 2224              clr R2
 1C62 20920C00          sts _r,R2
 1C66                   .dbline 627
 1C66                   .dbline 628
 1C66           ;                                                  }
 1C66                   .dbline 629
 1C66           ;                                                          break;
 1C66                   .dbline 630
 1C66           ;                                         }}
 1C66                   .dbline 631
 1C66           ;                                         break;
 1C66 9FC1              xjmp L354
 1C68           L377:
 1C68                   .dbline 632
 1C68           ;                case 2: { switch(k)
 1C68                   .dbline 632
 1C68 00910800          lds R16,_k
 1C6C 1127              clr R17
 1C6E 0130              cpi R16,1
 1C70 E0E0              ldi R30,0
 1C72 1E07              cpc R17,R30
 1C74 29F0              breq L381
 1C76           X216:
 1C76 0230              cpi R16,2
 1C78 E0E0              ldi R30,0
 1C7A 1E07              cpc R17,R30
 1C7C D9F0              breq L384
 1C7E           X217:
 1C7E 93C1              xjmp L354
 1C80           L381:
 1C80                   .dbline 634
 1C80           ;                             {
 1C80           ;                                         case 1: {
 1C80                   .dbline 635
 1C80           ;                                                  if (kprop_v==1) {p=0;}
 1C80 80915E00          lds R24,_kprop_v
 1C84 90915F00          lds R25,_kprop_v+1
 1C88 8130              cpi R24,1
 1C8A E0E0              ldi R30,0
 1C8C 9E07              cpc R25,R30
 1C8E 21F4              brne L382
 1C90           X218:
 1C90                   .dbline 635
 1C90                   .dbline 635
 1C90 2224              clr R2
 1C92 20920B00          sts _p,R2
 1C96                   .dbline 635
 1C96 87C1              xjmp L354
 1C98           L382:
 1C98                   .dbline 636
 1C98           ;                                                          else {kprop_v=kprop_v>>1; p=0;}
 1C98                   .dbline 636
 1C98 20905E00          lds R2,_kprop_v
 1C9C 30905F00          lds R3,_kprop_v+1
 1CA0 3694              lsr R3
 1CA2 2794              ror R2
 1CA4 30925F00          sts _kprop_v+1,R3
 1CA8 20925E00          sts _kprop_v,R2
 1CAC                   .dbline 636
 1CAC 2224              clr R2
 1CAE 20920B00          sts _p,R2
 1CB2                   .dbline 636
 1CB2                   .dbline 637
 1CB2           ;                                                 }
 1CB2                   .dbline 638
 1CB2           ;                                                         break;
 1CB2 79C1              xjmp L354
 1CB4           L384:
 1CB4                   .dbline 639
 1CB4           ;                                         case 2: {
 1CB4                   .dbline 640
 1CB4           ;                                                  if (kprop_v==128) {r=0;}
 1CB4 80915E00          lds R24,_kprop_v
 1CB8 90915F00          lds R25,_kprop_v+1
 1CBC 8038              cpi R24,128
 1CBE E0E0              ldi R30,0
 1CC0 9E07              cpc R25,R30
 1CC2 21F4              brne L385
 1CC4           X219:
 1CC4                   .dbline 640
 1CC4                   .dbline 640
 1CC4 2224              clr R2
 1CC6 20920C00          sts _r,R2
 1CCA                   .dbline 640
 1CCA 6DC1              xjmp L354
 1CCC           L385:
 1CCC                   .dbline 641
 1CCC           ;                                                          else {kprop_v=kprop_v<<1; r=0; } 
 1CCC                   .dbline 641
 1CCC 20905E00          lds R2,_kprop_v
 1CD0 30905F00          lds R3,_kprop_v+1
 1CD4 220C              lsl R2
 1CD6 331C              rol R3
 1CD8 30925F00          sts _kprop_v+1,R3
 1CDC 20925E00          sts _kprop_v,R2
 1CE0                   .dbline 641
 1CE0 2224              clr R2
 1CE2 20920C00          sts _r,R2
 1CE6                   .dbline 641
 1CE6                   .dbline 642
 1CE6           ;                                                  } 
 1CE6                   .dbline 643
 1CE6           ;                                                          break;
 1CE6                   .dbline 644
 1CE6           ;                                         }}
 1CE6                   .dbline 645
 1CE6           ;                                         break;
 1CE6 5FC1              xjmp L354
 1CE8           L387:
 1CE8                   .dbline 646
 1CE8           ;                 case 3: {switch(k)
 1CE8                   .dbline 646
 1CE8 00910800          lds R16,_k
 1CEC 1127              clr R17
 1CEE 0130              cpi R16,1
 1CF0 E0E0              ldi R30,0
 1CF2 1E07              cpc R17,R30
 1CF4 29F0              breq L391
 1CF6           X220:
 1CF6 0230              cpi R16,2
 1CF8 E0E0              ldi R30,0
 1CFA 1E07              cpc R17,R30
 1CFC D9F0              breq L394
 1CFE           X221:
 1CFE 53C1              xjmp L354
 1D00           L391:
 1D00                   .dbline 648
 1D00           ;                             {
 1D00           ;                                         case 1: {
 1D00                   .dbline 649
 1D00           ;                                                  if(tinteg_v==0) {p=0;}
 1D00 20906000          lds R2,_tinteg_v
 1D04 30906100          lds R3,_tinteg_v+1
 1D08 2220              tst R2
 1D0A 31F4              brne L392
 1D0C 3320              tst R3
 1D0E 21F4              brne L392
 1D10           X222:
 1D10                   .dbline 649
 1D10                   .dbline 649
 1D10 2224              clr R2
 1D12 20920B00          sts _p,R2
 1D16                   .dbline 649
 1D16 47C1              xjmp L354
 1D18           L392:
 1D18                   .dbline 650
 1D18           ;                                                  else {tinteg_v=tinteg_v>>1; p=0;} 
 1D18                   .dbline 650
 1D18 20906000          lds R2,_tinteg_v
 1D1C 30906100          lds R3,_tinteg_v+1
 1D20 3694              lsr R3
 1D22 2794              ror R2
 1D24 30926100          sts _tinteg_v+1,R3
 1D28 20926000          sts _tinteg_v,R2
 1D2C                   .dbline 650
 1D2C 2224              clr R2
 1D2E 20920B00          sts _p,R2
 1D32                   .dbline 650
 1D32                   .dbline 651
 1D32           ;                                                  }
 1D32                   .dbline 652
 1D32           ;                                                          break;
 1D32 39C1              xjmp L354
 1D34           L394:
 1D34                   .dbline 653
 1D34           ;                                         case 2:  {
 1D34                   .dbline 654
 1D34           ;                                                  if(tinteg_v==0) {tinteg_v=tinteg_v+1; r=0;}
 1D34 20906000          lds R2,_tinteg_v
 1D38 30906100          lds R3,_tinteg_v+1
 1D3C 2220              tst R2
 1D3E 61F4              brne L395
 1D40 3320              tst R3
 1D42 51F4              brne L395
 1D44           X223:
 1D44                   .dbline 654
 1D44                   .dbline 654
 1D44 C101              movw R24,R2
 1D46 0196              adiw R24,1
 1D48 90936100          sts _tinteg_v+1,R25
 1D4C 80936000          sts _tinteg_v,R24
 1D50                   .dbline 654
 1D50 2224              clr R2
 1D52 20920C00          sts _r,R2
 1D56                   .dbline 654
 1D56 27C1              xjmp L354
 1D58           L395:
 1D58                   .dbline 655
 1D58           ;                                                          else if(tinteg_v==128){r=0;}
 1D58 80916000          lds R24,_tinteg_v
 1D5C 90916100          lds R25,_tinteg_v+1
 1D60 8038              cpi R24,128
 1D62 E0E0              ldi R30,0
 1D64 9E07              cpc R25,R30
 1D66 21F4              brne L397
 1D68           X224:
 1D68                   .dbline 655
 1D68                   .dbline 655
 1D68 2224              clr R2
 1D6A 20920C00          sts _r,R2
 1D6E                   .dbline 655
 1D6E 1BC1              xjmp L354
 1D70           L397:
 1D70                   .dbline 656
 1D70           ;                                                          else {tinteg_v=tinteg_v<<1; r=0;} 
 1D70                   .dbline 656
 1D70 20906000          lds R2,_tinteg_v
 1D74 30906100          lds R3,_tinteg_v+1
 1D78 220C              lsl R2
 1D7A 331C              rol R3
 1D7C 30926100          sts _tinteg_v+1,R3
 1D80 20926000          sts _tinteg_v,R2
 1D84                   .dbline 656
 1D84 2224              clr R2
 1D86 20920C00          sts _r,R2
 1D8A                   .dbline 656
 1D8A                   .dbline 657
 1D8A           ;                                                  }
 1D8A                   .dbline 658
 1D8A           ;                                                          break;
 1D8A                   .dbline 659
 1D8A           ;                                         }}
 1D8A                   .dbline 660
 1D8A           ;                                         break;
 1D8A 0DC1              xjmp L354
 1D8C           L399:
 1D8C                   .dbline 661
 1D8C           ;                  case 4: { switch(k)
 1D8C                   .dbline 661
 1D8C 00910800          lds R16,_k
 1D90 1127              clr R17
 1D92 0130              cpi R16,1
 1D94 E0E0              ldi R30,0
 1D96 1E07              cpc R17,R30
 1D98 29F0              breq L403
 1D9A           X225:
 1D9A 0230              cpi R16,2
 1D9C E0E0              ldi R30,0
 1D9E 1E07              cpc R17,R30
 1DA0 D9F0              breq L406
 1DA2           X226:
 1DA2 01C1              xjmp L354
 1DA4           L403:
 1DA4                   .dbline 663
 1DA4           ;                             {
 1DA4           ;                                         case 1: {
 1DA4                   .dbline 664
 1DA4           ;                                                  if(kos_i==1) {p=0;}
 1DA4 80916C00          lds R24,_kos_i
 1DA8 90916D00          lds R25,_kos_i+1
 1DAC 8130              cpi R24,1
 1DAE E0E0              ldi R30,0
 1DB0 9E07              cpc R25,R30
 1DB2 21F4              brne L404
 1DB4           X227:
 1DB4                   .dbline 664
 1DB4                   .dbline 664
 1DB4 2224              clr R2
 1DB6 20920B00          sts _p,R2
 1DBA                   .dbline 664
 1DBA F5C0              xjmp L354
 1DBC           L404:
 1DBC                   .dbline 665
 1DBC           ;                                                  else {kos_i=kos_i>>1; p=0;} 
 1DBC                   .dbline 665
 1DBC 20906C00          lds R2,_kos_i
 1DC0 30906D00          lds R3,_kos_i+1
 1DC4 3694              lsr R3
 1DC6 2794              ror R2
 1DC8 30926D00          sts _kos_i+1,R3
 1DCC 20926C00          sts _kos_i,R2
 1DD0                   .dbline 665
 1DD0 2224              clr R2
 1DD2 20920B00          sts _p,R2
 1DD6                   .dbline 665
 1DD6                   .dbline 666
 1DD6           ;                                                  }
 1DD6                   .dbline 667
 1DD6           ;                                                          break;
 1DD6 E7C0              xjmp L354
 1DD8           L406:
 1DD8                   .dbline 668
 1DD8           ;                                         case 2: {
 1DD8                   .dbline 669
 1DD8           ;                                                  if(kos_i==128) {r=0;}
 1DD8 80916C00          lds R24,_kos_i
 1DDC 90916D00          lds R25,_kos_i+1
 1DE0 8038              cpi R24,128
 1DE2 E0E0              ldi R30,0
 1DE4 9E07              cpc R25,R30
 1DE6 21F4              brne L407
 1DE8           X228:
 1DE8                   .dbline 669
 1DE8                   .dbline 669
 1DE8 2224              clr R2
 1DEA 20920C00          sts _r,R2
 1DEE                   .dbline 669
 1DEE DBC0              xjmp L354
 1DF0           L407:
 1DF0                   .dbline 670
 1DF0           ;                                                          else {kos_i=kos_i<<1; r=0;}
 1DF0                   .dbline 670
 1DF0 20906C00          lds R2,_kos_i
 1DF4 30906D00          lds R3,_kos_i+1
 1DF8 220C              lsl R2
 1DFA 331C              rol R3
 1DFC 30926D00          sts _kos_i+1,R3
 1E00 20926C00          sts _kos_i,R2
 1E04                   .dbline 670
 1E04 2224              clr R2
 1E06 20920C00          sts _r,R2
 1E0A                   .dbline 670
 1E0A                   .dbline 671
 1E0A           ;                                                  } 
 1E0A                   .dbline 672
 1E0A           ;                                                          break;
 1E0A                   .dbline 673
 1E0A           ;                                         }}
 1E0A                   .dbline 674
 1E0A           ;                                         break;
 1E0A CDC0              xjmp L354
 1E0C           L409:
 1E0C                   .dbline 675
 1E0C           ;                        case 5: { switch(k)
 1E0C                   .dbline 675
 1E0C 00910800          lds R16,_k
 1E10 1127              clr R17
 1E12 0130              cpi R16,1
 1E14 E0E0              ldi R30,0
 1E16 1E07              cpc R17,R30
 1E18 29F0              breq L413
 1E1A           X229:
 1E1A 0230              cpi R16,2
 1E1C E0E0              ldi R30,0
 1E1E 1E07              cpc R17,R30
 1E20 D9F0              breq L416
 1E22           X230:
 1E22 C1C0              xjmp L354
 1E24           L413:
 1E24                   .dbline 677
 1E24           ;                                 {
 1E24           ;                                         case 1: {
 1E24                   .dbline 678
 1E24           ;                                                  if(kos_v==0) {p=0;}
 1E24 20906A00          lds R2,_kos_v
 1E28 30906B00          lds R3,_kos_v+1
 1E2C 2220              tst R2
 1E2E 31F4              brne L414
 1E30 3320              tst R3
 1E32 21F4              brne L414
 1E34           X231:
 1E34                   .dbline 678
 1E34                   .dbline 678
 1E34 2224              clr R2
 1E36 20920B00          sts _p,R2
 1E3A                   .dbline 678
 1E3A B5C0              xjmp L354
 1E3C           L414:
 1E3C                   .dbline 679
 1E3C           ;                                                          else {kos_v=kos_v>>1; p=0;} 
 1E3C                   .dbline 679
 1E3C 20906A00          lds R2,_kos_v
 1E40 30906B00          lds R3,_kos_v+1
 1E44 3694              lsr R3
 1E46 2794              ror R2
 1E48 30926B00          sts _kos_v+1,R3
 1E4C 20926A00          sts _kos_v,R2
 1E50                   .dbline 679
 1E50 2224              clr R2
 1E52 20920B00          sts _p,R2
 1E56                   .dbline 679
 1E56                   .dbline 680
 1E56           ;                                                  }
 1E56                   .dbline 681
 1E56           ;                                                          break;
 1E56 A7C0              xjmp L354
 1E58           L416:
 1E58                   .dbline 682
 1E58           ;                                         case 2: {
 1E58                   .dbline 683
 1E58           ;                                                  if(kos_v==0) {kos_v=kos_v+1; r=0;}
 1E58 20906A00          lds R2,_kos_v
 1E5C 30906B00          lds R3,_kos_v+1
 1E60 2220              tst R2
 1E62 61F4              brne L417
 1E64 3320              tst R3
 1E66 51F4              brne L417
 1E68           X232:
 1E68                   .dbline 683
 1E68                   .dbline 683
 1E68 C101              movw R24,R2
 1E6A 0196              adiw R24,1
 1E6C 90936B00          sts _kos_v+1,R25
 1E70 80936A00          sts _kos_v,R24
 1E74                   .dbline 683
 1E74 2224              clr R2
 1E76 20920C00          sts _r,R2
 1E7A                   .dbline 683
 1E7A 95C0              xjmp L354
 1E7C           L417:
 1E7C                   .dbline 684
 1E7C           ;                                                          else if(kos_v==128) {r=0;}
 1E7C 80916A00          lds R24,_kos_v
 1E80 90916B00          lds R25,_kos_v+1
 1E84 8038              cpi R24,128
 1E86 E0E0              ldi R30,0
 1E88 9E07              cpc R25,R30
 1E8A 21F4              brne L419
 1E8C           X233:
 1E8C                   .dbline 684
 1E8C                   .dbline 684
 1E8C 2224              clr R2
 1E8E 20920C00          sts _r,R2
 1E92                   .dbline 684
 1E92 89C0              xjmp L354
 1E94           L419:
 1E94                   .dbline 685
 1E94           ;                                                  else {kos_v=kos_v<<1; r=0;} 
 1E94                   .dbline 685
 1E94 20906A00          lds R2,_kos_v
 1E98 30906B00          lds R3,_kos_v+1
 1E9C 220C              lsl R2
 1E9E 331C              rol R3
 1EA0 30926B00          sts _kos_v+1,R3
 1EA4 20926A00          sts _kos_v,R2
 1EA8                   .dbline 685
 1EA8 2224              clr R2
 1EAA 20920C00          sts _r,R2
 1EAE                   .dbline 685
 1EAE                   .dbline 686
 1EAE           ;                                                  }
 1EAE                   .dbline 687
 1EAE           ;                                                          break;
 1EAE                   .dbline 688
 1EAE           ;                                         }}
 1EAE                   .dbline 689
 1EAE           ;                                         break;
 1EAE 7BC0              xjmp L354
 1EB0           L421:
 1EB0                   .dbline 690
 1EB0           ;                        case 6: { switch(k)
 1EB0                   .dbline 690
 1EB0 00910800          lds R16,_k
 1EB4 1127              clr R17
 1EB6 0130              cpi R16,1
 1EB8 E0E0              ldi R30,0
 1EBA 1E07              cpc R17,R30
 1EBC 29F0              breq L425
 1EBE           X234:
 1EBE 0230              cpi R16,2
 1EC0 E0E0              ldi R30,0
 1EC2 1E07              cpc R17,R30
 1EC4 D1F0              breq L428
 1EC6           X235:
 1EC6 6FC0              xjmp L354
 1EC8           L425:
 1EC8                   .dbline 692
 1EC8           ;                                 {
 1EC8           ;                                         case 1: {
 1EC8                   .dbline 693
 1EC8           ;                                                  if(fkvant==1) {p=0;}
 1EC8 80916200          lds R24,_fkvant
 1ECC 90916300          lds R25,_fkvant+1
 1ED0 8130              cpi R24,1
 1ED2 E0E0              ldi R30,0
 1ED4 9E07              cpc R25,R30
 1ED6 21F4              brne L426
 1ED8           X236:
 1ED8                   .dbline 693
 1ED8                   .dbline 693
 1ED8 2224              clr R2
 1EDA 20920B00          sts _p,R2
 1EDE                   .dbline 693
 1EDE 63C0              xjmp L354
 1EE0           L426:
 1EE0                   .dbline 694
 1EE0           ;                                                  else {fkvant=fkvant-1; p=0;} 
 1EE0                   .dbline 694
 1EE0 80916200          lds R24,_fkvant
 1EE4 90916300          lds R25,_fkvant+1
 1EE8 0197              sbiw R24,1
 1EEA 90936300          sts _fkvant+1,R25
 1EEE 80936200          sts _fkvant,R24
 1EF2                   .dbline 694
 1EF2 2224              clr R2
 1EF4 20920B00          sts _p,R2
 1EF8                   .dbline 694
 1EF8                   .dbline 695
 1EF8           ;                                                  }
 1EF8                   .dbline 696
 1EF8           ;                                                          break;
 1EF8 56C0              xjmp L354
 1EFA           L428:
 1EFA                   .dbline 697
 1EFA           ;                                         case 2: {
 1EFA                   .dbline 698
 1EFA           ;                                                  if(fkvant==10) {r=0;}
 1EFA 80916200          lds R24,_fkvant
 1EFE 90916300          lds R25,_fkvant+1
 1F02 8A30              cpi R24,10
 1F04 E0E0              ldi R30,0
 1F06 9E07              cpc R25,R30
 1F08 21F4              brne L429
 1F0A           X237:
 1F0A                   .dbline 698
 1F0A                   .dbline 698
 1F0A 2224              clr R2
 1F0C 20920C00          sts _r,R2
 1F10                   .dbline 698
 1F10 4AC0              xjmp L354
 1F12           L429:
 1F12                   .dbline 699
 1F12           ;                                                          else {fkvant=fkvant+1; r=0;}
 1F12                   .dbline 699
 1F12 80916200          lds R24,_fkvant
 1F16 90916300          lds R25,_fkvant+1
 1F1A 0196              adiw R24,1
 1F1C 90936300          sts _fkvant+1,R25
 1F20 80936200          sts _fkvant,R24
 1F24                   .dbline 699
 1F24 2224              clr R2
 1F26 20920C00          sts _r,R2
 1F2A                   .dbline 699
 1F2A                   .dbline 700
 1F2A           ;                                                  } 
 1F2A                   .dbline 701
 1F2A           ;                                                          break;
 1F2A                   .dbline 702
 1F2A           ;                                                          }}
 1F2A                   .dbline 703
 1F2A           ;                                         break;
 1F2A 3DC0              xjmp L354
 1F2C           L431:
 1F2C                   .dbline 704
 1F2C           ;                        case 7: { switch(k)
 1F2C                   .dbline 704
 1F2C 00910800          lds R16,_k
 1F30 1127              clr R17
 1F32 0130              cpi R16,1
 1F34 E0E0              ldi R30,0
 1F36 1E07              cpc R17,R30
 1F38 29F0              breq L435
 1F3A           X238:
 1F3A 0230              cpi R16,2
 1F3C E0E0              ldi R30,0
 1F3E 1E07              cpc R17,R30
 1F40 D1F0              breq L438
 1F42           X239:
 1F42 31C0              xjmp L354
 1F44           L435:
 1F44                   .dbline 706
 1F44           ;                                 {
 1F44           ;                                         case 1: {
 1F44                   .dbline 707
 1F44           ;                                                  if(iupor==5) {p=0;}
 1F44 80916800          lds R24,_iupor
 1F48 90916900          lds R25,_iupor+1
 1F4C 8530              cpi R24,5
 1F4E E0E0              ldi R30,0
 1F50 9E07              cpc R25,R30
 1F52 21F4              brne L436
 1F54           X240:
 1F54                   .dbline 707
 1F54                   .dbline 707
 1F54 2224              clr R2
 1F56 20920B00          sts _p,R2
 1F5A                   .dbline 707
 1F5A 25C0              xjmp L354
 1F5C           L436:
 1F5C                   .dbline 708
 1F5C           ;                                                  else {iupor=iupor-5; p=0;} 
 1F5C                   .dbline 708
 1F5C 80916800          lds R24,_iupor
 1F60 90916900          lds R25,_iupor+1
 1F64 0597              sbiw R24,5
 1F66 90936900          sts _iupor+1,R25
 1F6A 80936800          sts _iupor,R24
 1F6E                   .dbline 708
 1F6E 2224              clr R2
 1F70 20920B00          sts _p,R2
 1F74                   .dbline 708
 1F74                   .dbline 709
 1F74           ;                                                  }
 1F74                   .dbline 710
 1F74           ;                                                          break;
 1F74 18C0              xjmp L354
 1F76           L438:
 1F76                   .dbline 711
 1F76           ;                                         case 2: {
 1F76                   .dbline 712
 1F76           ;                                                  if(iupor==20) {r=0;}
 1F76 80916800          lds R24,_iupor
 1F7A 90916900          lds R25,_iupor+1
 1F7E 8431              cpi R24,20
 1F80 E0E0              ldi R30,0
 1F82 9E07              cpc R25,R30
 1F84 21F4              brne L439
 1F86           X241:
 1F86                   .dbline 712
 1F86                   .dbline 712
 1F86 2224              clr R2
 1F88 20920C00          sts _r,R2
 1F8C                   .dbline 712
 1F8C 0CC0              xjmp L354
 1F8E           L439:
 1F8E                   .dbline 713
 1F8E           ;                                                  else {iupor=iupor+5; r=0;} 
 1F8E                   .dbline 713
 1F8E 80916800          lds R24,_iupor
 1F92 90916900          lds R25,_iupor+1
 1F96 0596              adiw R24,5
 1F98 90936900          sts _iupor+1,R25
 1F9C 80936800          sts _iupor,R24
 1FA0                   .dbline 713
 1FA0 2224              clr R2
 1FA2 20920C00          sts _r,R2
 1FA6                   .dbline 713
 1FA6                   .dbline 714
 1FA6           ;                                                  }
 1FA6                   .dbline 715
 1FA6           ;                                                          break;
 1FA6                   .dbline 716
 1FA6           ;                                         }}
 1FA6                   .dbline 717
 1FA6           ;                                         break;        
 1FA6           L353:
 1FA6           L354:
 1FA6                   .dbline -2
 1FA6           L352:
 1FA6                   .dbline 0 ; func end
 1FA6 0895              ret
 1FA8                   .dbend
 1FA8                   .dbfunc e Vvod _Vvod fV
                        .even
 1FA8           _Vvod::
 1FA8                   .dbline -1
 1FA8                   .dbline 721
 1FA8           ;      }                     
 1FA8           ; }
 1FA8           ; void Vvod(void)
 1FA8           ; {
 1FA8                   .dbline 722
 1FA8           ; if((PINB&0x20)==0x00) l=1;
 1FA8 B599              sbic 0x16,5
 1FAA 04C0              rjmp L442
 1FAC           X249:
 1FAC                   .dbline 722
 1FAC 81E0              ldi R24,1
 1FAE 80930D00          sts _l,R24
 1FB2 81C0              xjmp L443
 1FB4           L442:
 1FB4                   .dbline 723
 1FB4           ; else { if(l==1)
 1FB4                   .dbline 723
 1FB4 80910D00          lds R24,_l
 1FB8 8130              cpi R24,1
 1FBA 09F0              breq X260
 1FBC 7CC0              xjmp L444
 1FBE           X260:
 1FBE           X250:
 1FBE                   .dbline 724
 1FBE           ;      {
 1FBE           L446:
 1FBE                   .dbline 725
 1FBE           ;           while(EECR&0x02){;}
 1FBE                   .dbline 725
 1FBE                   .dbline 725
 1FBE           L447:
 1FBE                   .dbline 725
 1FBE E199              sbic 0x1c,1
 1FC0 FECF              rjmp L446
 1FC2           X251:
 1FC2                   .dbline 726
 1FC2           ;           EEAR=0;
 1FC2 2224              clr R2
 1FC4 3324              clr R3
 1FC6 3FBA              out 0x1f,R3
 1FC8 2EBA              out 0x1e,R2
 1FCA                   .dbline 727
 1FCA           ;           EEDR=kprop_i;
 1FCA 20906400          lds R2,_kprop_i
 1FCE 30906500          lds R3,_kprop_i+1
 1FD2 2DBA              out 0x1d,R2
 1FD4                   .dbline 728
 1FD4           ;               EECR=0x04;
 1FD4 84E0              ldi R24,4
 1FD6 8CBB              out 0x1c,R24
 1FD8                   .dbline 729
 1FD8           ;               EECR=0x02;
 1FD8 82E0              ldi R24,2
 1FDA 8CBB              out 0x1c,R24
 1FDC           L449:
 1FDC                   .dbline 730
 1FDC           ;               while(EECR&0x02){;}
 1FDC                   .dbline 730
 1FDC                   .dbline 730
 1FDC           L450:
 1FDC                   .dbline 730
 1FDC E199              sbic 0x1c,1
 1FDE FECF              rjmp L449
 1FE0           X252:
 1FE0                   .dbline 731
 1FE0           ;               EEAR=1;
 1FE0 81E0              ldi R24,1
 1FE2 90E0              ldi R25,0
 1FE4 9FBB              out 0x1f,R25
 1FE6 8EBB              out 0x1e,R24
 1FE8                   .dbline 732
 1FE8           ;           EEDR=tinteg_i;
 1FE8 20906600          lds R2,_tinteg_i
 1FEC 30906700          lds R3,_tinteg_i+1
 1FF0 2DBA              out 0x1d,R2
 1FF2                   .dbline 733
 1FF2           ;               EECR=0x04;
 1FF2 84E0              ldi R24,4
 1FF4 8CBB              out 0x1c,R24
 1FF6                   .dbline 734
 1FF6           ;               EECR=0x02;
 1FF6 82E0              ldi R24,2
 1FF8 8CBB              out 0x1c,R24
 1FFA           L452:
 1FFA                   .dbline 735
 1FFA           ;               while(EECR&0x02){;}
 1FFA                   .dbline 735
 1FFA                   .dbline 735
 1FFA           L453:
 1FFA                   .dbline 735
 1FFA E199              sbic 0x1c,1
 1FFC FECF              rjmp L452
 1FFE           X253:
 1FFE                   .dbline 736
 1FFE           ;               EEAR=2;
 1FFE 82E0              ldi R24,2
 2000 90E0              ldi R25,0
 2002 9FBB              out 0x1f,R25
 2004 8EBB              out 0x1e,R24
 2006                   .dbline 737
 2006           ;           EEDR=kprop_v;
 2006 20905E00          lds R2,_kprop_v
 200A 30905F00          lds R3,_kprop_v+1
 200E 2DBA              out 0x1d,R2
 2010                   .dbline 738
 2010           ;               EECR=0x04;
 2010 84E0              ldi R24,4
 2012 8CBB              out 0x1c,R24
 2014                   .dbline 739
 2014           ;               EECR=0x02;
 2014 82E0              ldi R24,2
 2016 8CBB              out 0x1c,R24
 2018           L455:
 2018                   .dbline 740
 2018           ;               while(EECR&0x02){;}
 2018                   .dbline 740
 2018                   .dbline 740
 2018           L456:
 2018                   .dbline 740
 2018 E199              sbic 0x1c,1
 201A FECF              rjmp L455
 201C           X254:
 201C                   .dbline 741
 201C           ;               EEAR=3;
 201C 83E0              ldi R24,3
 201E 90E0              ldi R25,0
 2020 9FBB              out 0x1f,R25
 2022 8EBB              out 0x1e,R24
 2024                   .dbline 742
 2024           ;           EEDR=tinteg_v;
 2024 20906000          lds R2,_tinteg_v
 2028 30906100          lds R3,_tinteg_v+1
 202C 2DBA              out 0x1d,R2
 202E                   .dbline 743
 202E           ;               EECR=0x04;
 202E 84E0              ldi R24,4
 2030 8CBB              out 0x1c,R24
 2032                   .dbline 744
 2032           ;               EECR=0x02;
 2032 82E0              ldi R24,2
 2034 8CBB              out 0x1c,R24
 2036           L458:
 2036                   .dbline 745
 2036           ;               while(EECR&0x02){;}
 2036                   .dbline 745
 2036                   .dbline 745
 2036           L459:
 2036                   .dbline 745
 2036 E199              sbic 0x1c,1
 2038 FECF              rjmp L458
 203A           X255:
 203A                   .dbline 746
 203A           ;               EEAR=4;
 203A 84E0              ldi R24,4
 203C 90E0              ldi R25,0
 203E 9FBB              out 0x1f,R25
 2040 8EBB              out 0x1e,R24
 2042                   .dbline 747
 2042           ;           EEDR=kos_i;
 2042 20906C00          lds R2,_kos_i
 2046 30906D00          lds R3,_kos_i+1
 204A 2DBA              out 0x1d,R2
 204C                   .dbline 748
 204C           ;               EECR=0x04;
 204C 8CBB              out 0x1c,R24
 204E                   .dbline 749
 204E           ;               EECR=0x02;
 204E 82E0              ldi R24,2
 2050 8CBB              out 0x1c,R24
 2052           L461:
 2052                   .dbline 750
 2052           ;               while(EECR&0x02){;}
 2052                   .dbline 750
 2052                   .dbline 750
 2052           L462:
 2052                   .dbline 750
 2052 E199              sbic 0x1c,1
 2054 FECF              rjmp L461
 2056           X256:
 2056                   .dbline 751
 2056           ;               EEAR=5;
 2056 85E0              ldi R24,5
 2058 90E0              ldi R25,0
 205A 9FBB              out 0x1f,R25
 205C 8EBB              out 0x1e,R24
 205E                   .dbline 752
 205E           ;           EEDR=kos_v;
 205E 20906A00          lds R2,_kos_v
 2062 30906B00          lds R3,_kos_v+1
 2066 2DBA              out 0x1d,R2
 2068                   .dbline 753
 2068           ;               EECR=0x04;
 2068 84E0              ldi R24,4
 206A 8CBB              out 0x1c,R24
 206C                   .dbline 754
 206C           ;               EECR=0x02;
 206C 82E0              ldi R24,2
 206E 8CBB              out 0x1c,R24
 2070           L464:
 2070                   .dbline 755
 2070           ;               while(EECR&0x02){;}
 2070                   .dbline 755
 2070                   .dbline 755
 2070           L465:
 2070                   .dbline 755
 2070 E199              sbic 0x1c,1
 2072 FECF              rjmp L464
 2074           X257:
 2074                   .dbline 756
 2074           ;               EEAR=6;
 2074 86E0              ldi R24,6
 2076 90E0              ldi R25,0
 2078 9FBB              out 0x1f,R25
 207A 8EBB              out 0x1e,R24
 207C                   .dbline 757
 207C           ;           EEDR=fkvant;
 207C 20906200          lds R2,_fkvant
 2080 30906300          lds R3,_fkvant+1
 2084 2DBA              out 0x1d,R2
 2086                   .dbline 758
 2086           ;               EECR=0x04;
 2086 84E0              ldi R24,4
 2088 8CBB              out 0x1c,R24
 208A                   .dbline 759
 208A           ;               EECR=0x02;
 208A 82E0              ldi R24,2
 208C 8CBB              out 0x1c,R24
 208E           L467:
 208E                   .dbline 760
 208E           ;               while(EECR&0x02){;}
 208E                   .dbline 760
 208E                   .dbline 760
 208E           L468:
 208E                   .dbline 760
 208E E199              sbic 0x1c,1
 2090 FECF              rjmp L467
 2092           X258:
 2092                   .dbline 761
 2092           ;               EEAR=7;
 2092 87E0              ldi R24,7
 2094 90E0              ldi R25,0
 2096 9FBB              out 0x1f,R25
 2098 8EBB              out 0x1e,R24
 209A                   .dbline 762
 209A           ;           EEDR=iupor;
 209A 20906800          lds R2,_iupor
 209E 30906900          lds R3,_iupor+1
 20A2 2DBA              out 0x1d,R2
 20A4                   .dbline 763
 20A4           ;               EECR=0x04;
 20A4 84E0              ldi R24,4
 20A6 8CBB              out 0x1c,R24
 20A8                   .dbline 764
 20A8           ;               EECR=0x02;
 20A8 82E0              ldi R24,2
 20AA 8CBB              out 0x1c,R24
 20AC           L470:
 20AC                   .dbline 765
 20AC           ;               while(EECR&0x02){;}
 20AC                   .dbline 765
 20AC                   .dbline 765
 20AC           L471:
 20AC                   .dbline 765
 20AC E199              sbic 0x1c,1
 20AE FECF              rjmp L470
 20B0           X259:
 20B0                   .dbline 766
 20B0           ;        l=0;
 20B0 2224              clr R2
 20B2 20920D00          sts _l,R2
 20B6                   .dbline 767
 20B6           ;        }}
 20B6           L444:
 20B6                   .dbline 767
 20B6           L443:
 20B6                   .dbline -2
 20B6           L441:
 20B6                   .dbline 0 ; func end
 20B6 0895              ret
 20B8                   .dbend
 20B8                   .dbfunc e main _main fV
                        .even
 20B8           _main::
 20B8                   .dbline -1
 20B8                   .dbline 770
 20B8           ; }
 20B8           ; void main(void)
 20B8           ; {
 20B8                   .dbline 771
 20B8           ;  init_devices();
 20B8 0E940000          xcall _init_devices
 20BC                   .dbline 773
 20BC           ;  //-----------------------driver/load-----------------------
 20BC           ;  if(((PINB&0x40)==0x00)&&((PINB&0x80)==0x80))
 20BC B699              sbic 0x16,6
 20BE 2CC0              rjmp L474
 20C0           X261:
 20C0 86B3              in R24,0x16
 20C2 8078              andi R24,128
 20C4 8038              cpi R24,128
 20C6 41F5              brne L474
 20C8           X262:
 20C8                   .dbline 774
 20C8           ;    {
 20C8                   .dbline 775
 20C8           ;    kprop_i=8; tinteg_i=1; fkvant=1; iupor=20;
 20C8 88E0              ldi R24,8
 20CA 90E0              ldi R25,0
 20CC 90936500          sts _kprop_i+1,R25
 20D0 80936400          sts _kprop_i,R24
 20D4                   .dbline 775
 20D4 81E0              ldi R24,1
 20D6 90936700          sts _tinteg_i+1,R25
 20DA 80936600          sts _tinteg_i,R24
 20DE                   .dbline 775
 20DE 90936300          sts _fkvant+1,R25
 20E2 80936200          sts _fkvant,R24
 20E6                   .dbline 775
 20E6 84E1              ldi R24,20
 20E8 90936900          sts _iupor+1,R25
 20EC 80936800          sts _iupor,R24
 20F0                   .dbline 776
 20F0           ;    kprop_v=4; tinteg_v=32; kos_i=1; kos_v=1;
 20F0 84E0              ldi R24,4
 20F2 90935F00          sts _kprop_v+1,R25
 20F6 80935E00          sts _kprop_v,R24
 20FA                   .dbline 776
 20FA 80E2              ldi R24,32
 20FC 90936100          sts _tinteg_v+1,R25
 2100 80936000          sts _tinteg_v,R24
 2104                   .dbline 776
 2104 81E0              ldi R24,1
 2106 90936D00          sts _kos_i+1,R25
 210A 80936C00          sts _kos_i,R24
 210E                   .dbline 776
 210E 90936B00          sts _kos_v+1,R25
 2112 80936A00          sts _kos_v,R24
 2116                   .dbline 777
 2116           ;    }
 2116 B0C0              xjmp L506
 2118           L474:
 2118                   .dbline 778
 2118           ;  else { if(((PINB&0x40)==0x00)&&((PINB&0x80)==0x00))
 2118                   .dbline 778
 2118 B699              sbic 0x16,6
 211A AEC0              rjmp L506
 211C           X263:
 211C B799              sbic 0x16,7
 211E ACC0              rjmp L506
 2120           X264:
 2120                   .dbline 779
 2120           ;    {
 2120           L478:
 2120                   .dbline 780
 2120           ;    while(EECR&0x01) {;}
 2120                   .dbline 780
 2120                   .dbline 780
 2120           L479:
 2120                   .dbline 780
 2120 E099              sbic 0x1c,0
 2122 FECF              rjmp L478
 2124           X265:
 2124                   .dbline 781
 2124           ;    EEAR=0;
 2124 2224              clr R2
 2126 3324              clr R3
 2128 3FBA              out 0x1f,R3
 212A 2EBA              out 0x1e,R2
 212C                   .dbline 782
 212C           ;    EECR=0x01;
 212C 81E0              ldi R24,1
 212E 8CBB              out 0x1c,R24
 2130                   .dbline 783
 2130           ;    kprop_i=EEDR;
 2130 2DB2              in R2,0x1d
 2132 3324              clr R3
 2134 30926500          sts _kprop_i+1,R3
 2138 20926400          sts _kprop_i,R2
 213C           L481:
 213C                   .dbline 784
 213C           ;    while(EECR&0x01) {;}
 213C                   .dbline 784
 213C                   .dbline 784
 213C           L482:
 213C                   .dbline 784
 213C E099              sbic 0x1c,0
 213E FECF              rjmp L481
 2140           X266:
 2140                   .dbline 785
 2140           ;    EEAR=1;
 2140 81E0              ldi R24,1
 2142 90E0              ldi R25,0
 2144 9FBB              out 0x1f,R25
 2146 8EBB              out 0x1e,R24
 2148                   .dbline 786
 2148           ;    EECR=0x01;
 2148 8CBB              out 0x1c,R24
 214A                   .dbline 787
 214A           ;    tinteg_i=EEDR;
 214A 2DB2              in R2,0x1d
 214C 3324              clr R3
 214E 30926700          sts _tinteg_i+1,R3
 2152 20926600          sts _tinteg_i,R2
 2156           L484:
 2156                   .dbline 788
 2156           ;    while(EECR&0x01) {;}
 2156                   .dbline 788
 2156                   .dbline 788
 2156           L485:
 2156                   .dbline 788
 2156 E099              sbic 0x1c,0
 2158 FECF              rjmp L484
 215A           X267:
 215A                   .dbline 789
 215A           ;    EEAR=2;
 215A 82E0              ldi R24,2
 215C 90E0              ldi R25,0
 215E 9FBB              out 0x1f,R25
 2160 8EBB              out 0x1e,R24
 2162                   .dbline 790
 2162           ;    EECR=0x01;
 2162 81E0              ldi R24,1
 2164 8CBB              out 0x1c,R24
 2166                   .dbline 791
 2166           ;    kprop_v=EEDR;
 2166 2DB2              in R2,0x1d
 2168 3324              clr R3
 216A 30925F00          sts _kprop_v+1,R3
 216E 20925E00          sts _kprop_v,R2
 2172           L487:
 2172                   .dbline 792
 2172           ;    while(EECR&0x01) {;}
 2172                   .dbline 792
 2172                   .dbline 792
 2172           L488:
 2172                   .dbline 792
 2172 E099              sbic 0x1c,0
 2174 FECF              rjmp L487
 2176           X268:
 2176                   .dbline 793
 2176           ;    EEAR=3;
 2176 83E0              ldi R24,3
 2178 90E0              ldi R25,0
 217A 9FBB              out 0x1f,R25
 217C 8EBB              out 0x1e,R24
 217E                   .dbline 794
 217E           ;    EECR=0x01;
 217E 81E0              ldi R24,1
 2180 8CBB              out 0x1c,R24
 2182                   .dbline 795
 2182           ;    tinteg_v=EEDR;
 2182 2DB2              in R2,0x1d
 2184 3324              clr R3
 2186 30926100          sts _tinteg_v+1,R3
 218A 20926000          sts _tinteg_v,R2
 218E           L490:
 218E                   .dbline 796
 218E           ;    while(EECR&0x01) {;}
 218E                   .dbline 796
 218E                   .dbline 796
 218E           L491:
 218E                   .dbline 796
 218E E099              sbic 0x1c,0
 2190 FECF              rjmp L490
 2192           X269:
 2192                   .dbline 797
 2192           ;    EEAR=4;
 2192 84E0              ldi R24,4
 2194 90E0              ldi R25,0
 2196 9FBB              out 0x1f,R25
 2198 8EBB              out 0x1e,R24
 219A                   .dbline 798
 219A           ;    EECR=0x01;
 219A 81E0              ldi R24,1
 219C 8CBB              out 0x1c,R24
 219E                   .dbline 799
 219E           ;    kos_i=EEDR;
 219E 2DB2              in R2,0x1d
 21A0 3324              clr R3
 21A2 30926D00          sts _kos_i+1,R3
 21A6 20926C00          sts _kos_i,R2
 21AA           L493:
 21AA                   .dbline 800
 21AA           ;    while(EECR&0x01) {;}
 21AA                   .dbline 800
 21AA                   .dbline 800
 21AA           L494:
 21AA                   .dbline 800
 21AA E099              sbic 0x1c,0
 21AC FECF              rjmp L493
 21AE           X270:
 21AE                   .dbline 801
 21AE           ;    EEAR=5;
 21AE 85E0              ldi R24,5
 21B0 90E0              ldi R25,0
 21B2 9FBB              out 0x1f,R25
 21B4 8EBB              out 0x1e,R24
 21B6                   .dbline 802
 21B6           ;    EECR=0x01;
 21B6 81E0              ldi R24,1
 21B8 8CBB              out 0x1c,R24
 21BA                   .dbline 803
 21BA           ;    kos_v=EEDR;
 21BA 2DB2              in R2,0x1d
 21BC 3324              clr R3
 21BE 30926B00          sts _kos_v+1,R3
 21C2 20926A00          sts _kos_v,R2
 21C6           L496:
 21C6                   .dbline 804
 21C6           ;    while(EECR&0x01) {;}
 21C6                   .dbline 804
 21C6                   .dbline 804
 21C6           L497:
 21C6                   .dbline 804
 21C6 E099              sbic 0x1c,0
 21C8 FECF              rjmp L496
 21CA           X271:
 21CA                   .dbline 805
 21CA           ;    EEAR=6;
 21CA 86E0              ldi R24,6
 21CC 90E0              ldi R25,0
 21CE 9FBB              out 0x1f,R25
 21D0 8EBB              out 0x1e,R24
 21D2                   .dbline 806
 21D2           ;    EECR=0x01;
 21D2 81E0              ldi R24,1
 21D4 8CBB              out 0x1c,R24
 21D6                   .dbline 807
 21D6           ;    fkvant=EEDR;
 21D6 2DB2              in R2,0x1d
 21D8 3324              clr R3
 21DA 30926300          sts _fkvant+1,R3
 21DE 20926200          sts _fkvant,R2
 21E2           L499:
 21E2                   .dbline 808
 21E2           ;    while(EECR&0x01) {;}
 21E2                   .dbline 808
 21E2                   .dbline 808
 21E2           L500:
 21E2                   .dbline 808
 21E2 E099              sbic 0x1c,0
 21E4 FECF              rjmp L499
 21E6           X272:
 21E6                   .dbline 809
 21E6           ;    EEAR=7;
 21E6 87E0              ldi R24,7
 21E8 90E0              ldi R25,0
 21EA 9FBB              out 0x1f,R25
 21EC 8EBB              out 0x1e,R24
 21EE                   .dbline 810
 21EE           ;    EECR=0x01;
 21EE 81E0              ldi R24,1
 21F0 8CBB              out 0x1c,R24
 21F2                   .dbline 811
 21F2           ;    iupor=EEDR;
 21F2 2DB2              in R2,0x1d
 21F4 3324              clr R3
 21F6 30926900          sts _iupor+1,R3
 21FA 20926800          sts _iupor,R2
 21FE           L502:
 21FE                   .dbline 812
 21FE           ;    while(EECR&0x01) {;}
 21FE                   .dbline 812
 21FE                   .dbline 812
 21FE           L503:
 21FE                   .dbline 812
 21FE E099              sbic 0x1c,0
 2200 FECF              rjmp L502
 2202           X273:
 2202                   .dbline 813
 2202           ;    }}
 2202                   .dbline 813
 2202 3AC0              xjmp L506
 2204           L505:
 2204                   .dbline 815
 2204           ; while(1)
 2204           ;  {
 2204                   .dbline 817
 2204           ;  //---------------------------------------------------
 2204           ;   if((PIND&0x08)==0x08)//zero-current
 2204 80B3              in R24,0x10
 2206 8870              andi R24,8
 2208 8830              cpi R24,8
 220A 41F4              brne L508
 220C           X274:
 220C                   .dbline 818
 220C           ;    {
 220C                   .dbline 819
 220C           ;     FWD=FWD_ref;
 220C 20904400          lds R2,_FWD_ref
 2210 20924200          sts _FWD,R2
 2214                   .dbline 820
 2214           ;     REV=REV_ref;
 2214 20904500          lds R2,_REV_ref
 2218 20924300          sts _REV,R2
 221C                   .dbline 821
 221C           ;    }
 221C           L508:
 221C                   .dbline 822
 221C           ;    if((PIND&0x40)==0x00)//start/stop
 221C 8699              sbic 0x10,6
 221E 0BC0              rjmp L510
 2220           X275:
 2220                   .dbline 823
 2220           ;     {
 2220                   .dbline 824
 2220           ;        Progr();//obrabotka klavish
 2220 DBDB              xcall _Progr
 2222                   .dbline 825
 2222           ;      Esc();
 2222 0ADC              xcall _Esc
 2224                   .dbline 826
 2224           ;        Vverh();
 2224 3BDC              xcall _Vverh
 2226                   .dbline 827
 2226           ;        Vniz();
 2226 49DC              xcall _Vniz
 2228                   .dbline 828
 2228           ;        Vvod();
 2228 BFDE              xcall _Vvod
 222A                   .dbline 829
 222A           ;        standby=1;//waiting
 222A 81E0              ldi R24,1
 222C 80934700          sts _standby,R24
 2230                   .dbline 830
 2230           ;        PORTD=0x00;//all LEDs off
 2230 2224              clr R2
 2232 22BA              out 0x12,R2
 2234                   .dbline 831
 2234           ;       }
 2234 0CC0              xjmp L511
 2236           L510:
 2236                   .dbline 833
 2236           ;       else
 2236           ;        {
 2236                   .dbline 834
 2236           ;        standby=0;
 2236 2224              clr R2
 2238 20924700          sts _standby,R2
 223C                   .dbline 835
 223C           ;        if(fault==0) {PORTD=0x10;}//normal indication
 223C 20904A00          lds R2,_fault
 2240 2220              tst R2
 2242 19F4              brne L512
 2244           X276:
 2244                   .dbline 835
 2244                   .dbline 835
 2244 80E1              ldi R24,16
 2246 82BB              out 0x12,R24
 2248                   .dbline 835
 2248 02C0              xjmp L513
 224A           L512:
 224A                   .dbline 836
 224A           ;        else         {PORTD=0x20;}//fault indication
 224A                   .dbline 836
 224A 80E2              ldi R24,32
 224C 82BB              out 0x12,R24
 224E                   .dbline 836
 224E           L513:
 224E                   .dbline 837
 224E           ;        }
 224E           L511:
 224E                   .dbline 838
 224E           ;   if((fault==1)&&(standby==1))
 224E 80914A00          lds R24,_fault
 2252 8130              cpi R24,1
 2254 39F4              brne L514
 2256           X277:
 2256 80914700          lds R24,_standby
 225A 8130              cpi R24,1
 225C 19F4              brne L514
 225E           X278:
 225E                   .dbline 839
 225E           ;     {
 225E                   .dbline 840
 225E           ;       fault=0;//fault reset
 225E 2224              clr R2
 2260 20924A00          sts _fault,R2
 2264                   .dbline 841
 2264           ;       }
 2264           L514:
 2264                   .dbline 843
 2264           ; //--------------------------------------------------
 2264           ;  if(flag_1==1)
 2264 80915400          lds R24,_flag_1
 2268 8130              cpi R24,1
 226A 09F4              brne L516
 226C           X279:
 226C                   .dbline 844
 226C           ;  {transmit_data_1();}
 226C                   .dbline 844
 226C 07D0              xcall _transmit_data_1
 226E                   .dbline 844
 226E           L516:
 226E                   .dbline 845
 226E           ;  if(flag_2==1)
 226E 80915500          lds R24,_flag_2
 2272 8130              cpi R24,1
 2274 09F4              brne L518
 2276           X280:
 2276                   .dbline 846
 2276           ;  {
 2276                   .dbline 847
 2276           ;  transmit_data_2();
 2276 16D0              xcall _transmit_data_2
 2278                   .dbline 848
 2278           ;  }
 2278           L518:
 2278                   .dbline 850
 2278           ; //--------------------------------------------------  
 2278           ;   }
 2278           L506:
 2278                   .dbline 814
 2278 C5CF              xjmp L505
 227A           X281:
 227A                   .dbline -2
 227A           L473:
 227A                   .dbline 0 ; func end
 227A 0895              ret
 227C                   .dbend
 227C                   .dbfunc e transmit_data_1 _transmit_data_1 fV
                        .even
 227C           _transmit_data_1::
 227C                   .dbline -1
 227C                   .dbline 853
 227C           ; }
 227C           ; void transmit_data_1(void)
 227C           ; {
 227C                   .dbline 854
 227C           ;  if((UCSRA&0x20)==0x20)//data register empty
 227C 8BB1              in R24,0xb
 227E 8072              andi R24,32
 2280 8032              cpi R24,32
 2282 79F4              brne L521
 2284           X282:
 2284                   .dbline 855
 2284           ;   {
 2284                   .dbline 856
 2284           ;  if((PIND&0x40)==0x00)
 2284 8699              sbic 0x10,6
 2286 0DC0              rjmp L523
 2288           X283:
 2288                   .dbline 857
 2288           ;  {
 2288                   .dbline 858
 2288           ;   if(flag1_1==0)
 2288 20905C00          lds R2,_flag1_1
 228C 2220              tst R2
 228E 49F4              brne L525
 2290           X284:
 2290                   .dbline 859
 2290           ;  {
 2290                   .dbline 860
 2290           ;        flag1_1=1;
 2290 81E0              ldi R24,1
 2292 80935C00          sts _flag1_1,R24
 2296                   .dbline 861
 2296           ;          flag1_2=0;
 2296 2224              clr R2
 2298 20925D00          sts _flag1_2,R2
 229C                   .dbline 862
 229C           ;        post_2=0;
 229C 20925700          sts _post_2,R2
 22A0                   .dbline 863
 22A0           ;        post1();
 22A0 B1D1              xcall _post1
 22A2                   .dbline 864
 22A2           ;  }
 22A2           L525:
 22A2                   .dbline 865
 22A2           ;  }
 22A2           L523:
 22A2                   .dbline 866
 22A2           ;  }
 22A2           L521:
 22A2                   .dbline -2
 22A2           L520:
 22A2                   .dbline 0 ; func end
 22A2 0895              ret
 22A4                   .dbend
 22A4                   .dbfunc e transmit_data_2 _transmit_data_2 fV
                        .even
 22A4           _transmit_data_2::
 22A4                   .dbline -1
 22A4                   .dbline 869
 22A4           ;  }
 22A4           ;  void transmit_data_2(void)
 22A4           ; {
 22A4                   .dbline 870
 22A4           ;  if((UCSRA&0x20)==0x20)//data register empty
 22A4 8BB1              in R24,0xb
 22A6 8072              andi R24,32
 22A8 8032              cpi R24,32
 22AA 99F4              brne L528
 22AC           X285:
 22AC                   .dbline 871
 22AC           ;   {
 22AC                   .dbline 872
 22AC           ;  if((PIND&0x40)==0x40)
 22AC 80B3              in R24,0x10
 22AE 8074              andi R24,64
 22B0 8034              cpi R24,64
 22B2 79F4              brne L530
 22B4           X286:
 22B4                   .dbline 873
 22B4           ;  {
 22B4                   .dbline 874
 22B4           ;  if(flag1_2==0)
 22B4 20905D00          lds R2,_flag1_2
 22B8 2220              tst R2
 22BA 59F4              brne L532
 22BC           X287:
 22BC                   .dbline 875
 22BC           ;  {     
 22BC                   .dbline 876
 22BC           ;        flag_1=1;
 22BC 81E0              ldi R24,1
 22BE 80935400          sts _flag_1,R24
 22C2                   .dbline 877
 22C2           ;        flag1_2=1;
 22C2 80935D00          sts _flag1_2,R24
 22C6                   .dbline 878
 22C6           ;          flag1_1=0;
 22C6 2224              clr R2
 22C8 20925C00          sts _flag1_1,R2
 22CC                   .dbline 879
 22CC           ;          post_1=0;
 22CC 20925600          sts _post_1,R2
 22D0                   .dbline 880
 22D0           ;        post2();
 22D0 01D0              xcall _post2
 22D2                   .dbline 881
 22D2           ;  }  
 22D2           L532:
 22D2                   .dbline 882
 22D2           ; } 
 22D2           L530:
 22D2                   .dbline 883
 22D2           ; }
 22D2           L528:
 22D2                   .dbline -2
 22D2           L527:
 22D2                   .dbline 0 ; func end
 22D2 0895              ret
 22D4                   .dbend
 22D4                   .dbfunc e post2 _post2 fV
                        .area  func_lit(rom, con, rel)
 0020           L554:
 0020 8511              .word `L538
 0022 8811              .word `L539
 0024 9F11              .word `L540
 0026 BA11              .word `L541
 0028 DB11              .word `L542
 002A F711              .word `L543
 002C 0E12              .word `L544
 002E 2B12              .word `L545
 0030 4C12              .word `L546
 0032 6812              .word `L547
 0034 7A12              .word `L548
 0036 9112              .word `L549
 0038 AE12              .word `L550
 003A CF12              .word `L551
 003C EB12              .word `L552
 003E FD12              .word `L553
                        .area text(rom, con, rel)
                        .even
 22D4           _post2::
 22D4 4A93              st -y,R20
 22D6 5A93              st -y,R21
 22D8                   .dbline -1
 22D8                   .dbline 886
 22D8           ; }
 22D8           ; void post2(void)
 22D8           ; {
 22D8                   .dbline 887
 22D8           ; switch(post_2)
 22D8 40915700          lds R20,_post_2
 22DC 5527              clr R21
 22DE 4030              cpi R20,0
 22E0 E0E0              ldi R30,0
 22E2 5E07              cpc R21,R30
 22E4 0CF4              brge X291
 22E6 8BC1              xjmp L535
 22E8           X291:
 22E8           X288:
 22E8 8FE0              ldi R24,15
 22EA 90E0              ldi R25,0
 22EC 8417              cp R24,R20
 22EE 9507              cpc R25,R21
 22F0 0CF4              brge X292
 22F2 85C1              xjmp L535
 22F4           X292:
 22F4           X289:
 22F4 80E0              ldi R24,<L554
 22F6 90E0              ldi R25,>L554
 22F8 FA01              movw R30,R20
 22FA EE0F              lsl R30
 22FC FF1F              rol R31
 22FE E80F              add R30,R24
 2300 F91F              adc R31,R25
 2302 2590              lpm R2,Z+
 2304 3490              lpm R3,Z
 2306 F101              movw R30,R2
 2308 0994               ijmp
 230A           X290:
 230A                   .dbfile C:\COPYSI~1\ildar.c
 230A                   .dbline 888
 230A           ;                {
 230A           L538:
 230A                   .dbline 890
 230A           ;                case 0:
 230A           ;                     UDR=0x99;//start talking post_2
 230A 89E9              ldi R24,153
 230C 8CB9              out 0xc,R24
 230E                   .dbline 891
 230E           ;                         break;   
 230E 77C1              xjmp L536
 2310           L539:
 2310                   .dbline 893
 2310           ;              case 1://alfa_4
 2310           ;                         temp=alfa_i>>12;
 2310 2CE0              ldi R18,12
 2312 30E0              ldi R19,0
 2314 00915200          lds R16,_alfa_i
 2318 10915300          lds R17,_alfa_i+1
 231C 0E940000          xcall lsr16
 2320 10935900          sts _temp+1,R17
 2324 00935800          sts _temp,R16
 2328                   .dbline 894
 2328           ;                                 temp|=0x80;
 2328 C801              movw R24,R16
 232A 8068              ori R24,128
 232C 90935900          sts _temp+1,R25
 2330 80935800          sts _temp,R24
 2334                   .dbline 895
 2334           ;                         data=temp;
 2334 1C01              movw R2,R24
 2336 20925A00          sts _data,R2
 233A                   .dbline 896
 233A           ;                         UDR=data;
 233A 8CB9              out 0xc,R24
 233C                   .dbline 897
 233C           ;                   break;
 233C 60C1              xjmp L536
 233E           L540:
 233E                   .dbline 899
 233E           ;              case 2://alfa_3
 233E           ;                         temp=alfa_i>>8;
 233E 20905200          lds R2,_alfa_i
 2342 30905300          lds R3,_alfa_i+1
 2346 232C              mov R2,R3
 2348 3324              clr R3
 234A 30925900          sts _temp+1,R3
 234E 20925800          sts _temp,R2
 2352                   .dbline 900
 2352           ;                                 temp&=0x000F;
 2352 C101              movw R24,R2
 2354 8F70              andi R24,15
 2356 9070              andi R25,0
 2358 90935900          sts _temp+1,R25
 235C 80935800          sts _temp,R24
 2360                   .dbline 901
 2360           ;                                 temp|=0x80;
 2360 8068              ori R24,128
 2362 90935900          sts _temp+1,R25
 2366 80935800          sts _temp,R24
 236A                   .dbline 902
 236A           ;                         data=temp;
 236A 1C01              movw R2,R24
 236C 20925A00          sts _data,R2
 2370                   .dbline 903
 2370           ;                         UDR=data;
 2370 8CB9              out 0xc,R24
 2372                   .dbline 904
 2372           ;                   break;
 2372 45C1              xjmp L536
 2374           L541:
 2374                   .dbline 906
 2374           ;                    case 3://alfa_2
 2374           ;                         temp=alfa_i>>4;
 2374 20905200          lds R2,_alfa_i
 2378 30905300          lds R3,_alfa_i+1
 237C 3694              lsr R3
 237E 2794              ror R2
 2380 3694              lsr R3
 2382 2794              ror R2
 2384 3694              lsr R3
 2386 2794              ror R2
 2388 3694              lsr R3
 238A 2794              ror R2
 238C 30925900          sts _temp+1,R3
 2390 20925800          sts _temp,R2
 2394                   .dbline 907
 2394           ;                                 temp&=0x000F;
 2394 C101              movw R24,R2
 2396 8F70              andi R24,15
 2398 9070              andi R25,0
 239A 90935900          sts _temp+1,R25
 239E 80935800          sts _temp,R24
 23A2                   .dbline 908
 23A2           ;                                 temp|=0x80;
 23A2 8068              ori R24,128
 23A4 90935900          sts _temp+1,R25
 23A8 80935800          sts _temp,R24
 23AC                   .dbline 909
 23AC           ;                         data=temp;
 23AC 1C01              movw R2,R24
 23AE 20925A00          sts _data,R2
 23B2                   .dbline 910
 23B2           ;                         UDR=data;
 23B2 8CB9              out 0xc,R24
 23B4                   .dbline 911
 23B4           ;                   break;
 23B4 24C1              xjmp L536
 23B6           L542:
 23B6                   .dbline 913
 23B6           ;                    case 4://alfa_1
 23B6           ;                         temp=alfa_i;
 23B6 20905200          lds R2,_alfa_i
 23BA 30905300          lds R3,_alfa_i+1
 23BE 30925900          sts _temp+1,R3
 23C2 20925800          sts _temp,R2
 23C6                   .dbline 914
 23C6           ;                                 temp&=0x000F;
 23C6 80915800          lds R24,_temp
 23CA 90915900          lds R25,_temp+1
 23CE 8F70              andi R24,15
 23D0 9070              andi R25,0
 23D2 90935900          sts _temp+1,R25
 23D6 80935800          sts _temp,R24
 23DA                   .dbline 915
 23DA           ;                                 temp|=0x80;
 23DA 8068              ori R24,128
 23DC 90935900          sts _temp+1,R25
 23E0 80935800          sts _temp,R24
 23E4                   .dbline 916
 23E4           ;                         data=temp;
 23E4 1C01              movw R2,R24
 23E6 20925A00          sts _data,R2
 23EA                   .dbline 917
 23EA           ;                         UDR=data;
 23EA 8CB9              out 0xc,R24
 23EC                   .dbline 918
 23EC           ;                   break;
 23EC 08C1              xjmp L536
 23EE           L543:
 23EE                   .dbline 920
 23EE           ;             case 5://tok_i_4
 23EE           ;                         temp=tok_i>>12;
 23EE 2CE0              ldi R18,12
 23F0 30E0              ldi R19,0
 23F2 00910200          lds R16,_tok_i
 23F6 10910300          lds R17,_tok_i+1
 23FA 0E940000          xcall asr16
 23FE 10935900          sts _temp+1,R17
 2402 00935800          sts _temp,R16
 2406                   .dbline 921
 2406           ;                                 temp|=0x90;
 2406 C801              movw R24,R16
 2408 8069              ori R24,144
 240A 90935900          sts _temp+1,R25
 240E 80935800          sts _temp,R24
 2412                   .dbline 922
 2412           ;                         data=temp;
 2412 1C01              movw R2,R24
 2414 20925A00          sts _data,R2
 2418                   .dbline 923
 2418           ;                         UDR=data;
 2418 8CB9              out 0xc,R24
 241A                   .dbline 924
 241A           ;                   break;
 241A F1C0              xjmp L536
 241C           L544:
 241C                   .dbline 926
 241C           ;              case 6://tok_i_3
 241C           ;                         temp=tok_i>>8;
 241C 20900200          lds R2,_tok_i
 2420 30900300          lds R3,_tok_i+1
 2424 232C              mov R2,R3
 2426 3324              clr R3
 2428 27FC              sbrc R2,7
 242A 3094              com R3
 242C 30925900          sts _temp+1,R3
 2430 20925800          sts _temp,R2
 2434                   .dbline 927
 2434           ;                                 temp&=0x000F;
 2434 C101              movw R24,R2
 2436 8F70              andi R24,15
 2438 9070              andi R25,0
 243A 90935900          sts _temp+1,R25
 243E 80935800          sts _temp,R24
 2442                   .dbline 928
 2442           ;                                 temp|=0x90;
 2442 8069              ori R24,144
 2444 90935900          sts _temp+1,R25
 2448 80935800          sts _temp,R24
 244C                   .dbline 929
 244C           ;                         data=temp;
 244C 1C01              movw R2,R24
 244E 20925A00          sts _data,R2
 2452                   .dbline 930
 2452           ;                         UDR=data;
 2452 8CB9              out 0xc,R24
 2454                   .dbline 931
 2454           ;                   break;
 2454 D4C0              xjmp L536
 2456           L545:
 2456                   .dbline 933
 2456           ;                    case 7://tok_i_2
 2456           ;                         temp=tok_i>>4;
 2456 20900200          lds R2,_tok_i
 245A 30900300          lds R3,_tok_i+1
 245E 3594              asr R3
 2460 2794              ror R2
 2462 3594              asr R3
 2464 2794              ror R2
 2466 3594              asr R3
 2468 2794              ror R2
 246A 3594              asr R3
 246C 2794              ror R2
 246E 30925900          sts _temp+1,R3
 2472 20925800          sts _temp,R2
 2476                   .dbline 934
 2476           ;                                 temp&=0x000F;
 2476 C101              movw R24,R2
 2478 8F70              andi R24,15
 247A 9070              andi R25,0
 247C 90935900          sts _temp+1,R25
 2480 80935800          sts _temp,R24
 2484                   .dbline 935
 2484           ;                                 temp|=0x90;
 2484 8069              ori R24,144
 2486 90935900          sts _temp+1,R25
 248A 80935800          sts _temp,R24
 248E                   .dbline 936
 248E           ;                         data=temp;
 248E 1C01              movw R2,R24
 2490 20925A00          sts _data,R2
 2494                   .dbline 937
 2494           ;                         UDR=data;
 2494 8CB9              out 0xc,R24
 2496                   .dbline 938
 2496           ;                   break;
 2496 B3C0              xjmp L536
 2498           L546:
 2498                   .dbline 940
 2498           ;                    case 8://tok_i_1
 2498           ;                         temp=tok_i;
 2498 20900200          lds R2,_tok_i
 249C 30900300          lds R3,_tok_i+1
 24A0 30925900          sts _temp+1,R3
 24A4 20925800          sts _temp,R2
 24A8                   .dbline 941
 24A8           ;                                 temp&=0x000F;
 24A8 80915800          lds R24,_temp
 24AC 90915900          lds R25,_temp+1
 24B0 8F70              andi R24,15
 24B2 9070              andi R25,0
 24B4 90935900          sts _temp+1,R25
 24B8 80935800          sts _temp,R24
 24BC                   .dbline 942
 24BC           ;                                 temp|=0x90;
 24BC 8069              ori R24,144
 24BE 90935900          sts _temp+1,R25
 24C2 80935800          sts _temp,R24
 24C6                   .dbline 943
 24C6           ;                         data=temp;
 24C6 1C01              movw R2,R24
 24C8 20925A00          sts _data,R2
 24CC                   .dbline 944
 24CC           ;                         UDR=data;
 24CC 8CB9              out 0xc,R24
 24CE                   .dbline 945
 24CE           ;                   break;
 24CE 97C0              xjmp L536
 24D0           L547:
 24D0                   .dbline 947
 24D0           ;             case 9://sign_current
 24D0           ;                             temp=sign_current;
 24D0 20905000          lds R2,_sign_current
 24D4 3324              clr R3
 24D6 30925900          sts _temp+1,R3
 24DA 20925800          sts _temp,R2
 24DE                   .dbline 948
 24DE           ;                                 temp|=0x90;
 24DE 80915800          lds R24,_temp
 24E2 90915900          lds R25,_temp+1
 24E6 8069              ori R24,144
 24E8 90935900          sts _temp+1,R25
 24EC 80935800          sts _temp,R24
 24F0                   .dbline 949
 24F0           ;                         UDR=temp;
 24F0 8CB9              out 0xc,R24
 24F2                   .dbline 950
 24F2           ;                   break;
 24F2 85C0              xjmp L536
 24F4           L548:
 24F4                   .dbline 952
 24F4           ;             case 10://volt_i_4
 24F4           ;                         temp=volt_i>>12;
 24F4 2CE0              ldi R18,12
 24F6 30E0              ldi R19,0
 24F8 00910000          lds R16,_volt_i
 24FC 10910100          lds R17,_volt_i+1
 2500 0E940000          xcall asr16
 2504 10935900          sts _temp+1,R17
 2508 00935800          sts _temp,R16
 250C                   .dbline 953
 250C           ;                                 temp|=0xA0;
 250C C801              movw R24,R16
 250E 806A              ori R24,160
 2510 90935900          sts _temp+1,R25
 2514 80935800          sts _temp,R24
 2518                   .dbline 954
 2518           ;                         data=temp;
 2518 1C01              movw R2,R24
 251A 20925A00          sts _data,R2
 251E                   .dbline 955
 251E           ;                         UDR=data;
 251E 8CB9              out 0xc,R24
 2520                   .dbline 956
 2520           ;                   break;
 2520 6EC0              xjmp L536
 2522           L549:
 2522                   .dbline 958
 2522           ;              case 11://volt_i_3
 2522           ;                         temp=volt_i>>8;
 2522 20900000          lds R2,_volt_i
 2526 30900100          lds R3,_volt_i+1
 252A 232C              mov R2,R3
 252C 3324              clr R3
 252E 27FC              sbrc R2,7
 2530 3094              com R3
 2532 30925900          sts _temp+1,R3
 2536 20925800          sts _temp,R2
 253A                   .dbline 959
 253A           ;                                 temp&=0x000F;
 253A C101              movw R24,R2
 253C 8F70              andi R24,15
 253E 9070              andi R25,0
 2540 90935900          sts _temp+1,R25
 2544 80935800          sts _temp,R24
 2548                   .dbline 960
 2548           ;                                 temp|=0xA0;
 2548 806A              ori R24,160
 254A 90935900          sts _temp+1,R25
 254E 80935800          sts _temp,R24
 2552                   .dbline 961
 2552           ;                         data=temp;
 2552 1C01              movw R2,R24
 2554 20925A00          sts _data,R2
 2558                   .dbline 962
 2558           ;                         UDR=data;
 2558 8CB9              out 0xc,R24
 255A                   .dbline 963
 255A           ;                   break;
 255A 51C0              xjmp L536
 255C           L550:
 255C                   .dbline 965
 255C           ;                    case 12://volt_i_2
 255C           ;                         temp=volt_i>>4;
 255C 20900000          lds R2,_volt_i
 2560 30900100          lds R3,_volt_i+1
 2564 3594              asr R3
 2566 2794              ror R2
 2568 3594              asr R3
 256A 2794              ror R2
 256C 3594              asr R3
 256E 2794              ror R2
 2570 3594              asr R3
 2572 2794              ror R2
 2574 30925900          sts _temp+1,R3
 2578 20925800          sts _temp,R2
 257C                   .dbline 966
 257C           ;                                 temp&=0x000F;
 257C C101              movw R24,R2
 257E 8F70              andi R24,15
 2580 9070              andi R25,0
 2582 90935900          sts _temp+1,R25
 2586 80935800          sts _temp,R24
 258A                   .dbline 967
 258A           ;                                 temp|=0xA0;
 258A 806A              ori R24,160
 258C 90935900          sts _temp+1,R25
 2590 80935800          sts _temp,R24
 2594                   .dbline 968
 2594           ;                         data=temp;
 2594 1C01              movw R2,R24
 2596 20925A00          sts _data,R2
 259A                   .dbline 969
 259A           ;                         UDR=data;
 259A 8CB9              out 0xc,R24
 259C                   .dbline 970
 259C           ;                   break;
 259C 30C0              xjmp L536
 259E           L551:
 259E                   .dbline 972
 259E           ;                    case 13://volt_i_1
 259E           ;                         temp=volt_i;
 259E 20900000          lds R2,_volt_i
 25A2 30900100          lds R3,_volt_i+1
 25A6 30925900          sts _temp+1,R3
 25AA 20925800          sts _temp,R2
 25AE                   .dbline 973
 25AE           ;                                 temp&=0x000F;
 25AE 80915800          lds R24,_temp
 25B2 90915900          lds R25,_temp+1
 25B6 8F70              andi R24,15
 25B8 9070              andi R25,0
 25BA 90935900          sts _temp+1,R25
 25BE 80935800          sts _temp,R24
 25C2                   .dbline 974
 25C2           ;                                 temp|=0xA0;
 25C2 806A              ori R24,160
 25C4 90935900          sts _temp+1,R25
 25C8 80935800          sts _temp,R24
 25CC                   .dbline 975
 25CC           ;                         data=temp;
 25CC 1C01              movw R2,R24
 25CE 20925A00          sts _data,R2
 25D2                   .dbline 976
 25D2           ;                         UDR=data;
 25D2 8CB9              out 0xc,R24
 25D4                   .dbline 977
 25D4           ;                   break;
 25D4 14C0              xjmp L536
 25D6           L552:
 25D6                   .dbline 979
 25D6           ;              case 14://sign_voltage
 25D6           ;                             temp=sign_voltage;
 25D6 20904F00          lds R2,_sign_voltage
 25DA 3324              clr R3
 25DC 30925900          sts _temp+1,R3
 25E0 20925800          sts _temp,R2
 25E4                   .dbline 980
 25E4           ;                                 temp|=0xA0;
 25E4 80915800          lds R24,_temp
 25E8 90915900          lds R25,_temp+1
 25EC 806A              ori R24,160
 25EE 90935900          sts _temp+1,R25
 25F2 80935800          sts _temp,R24
 25F6                   .dbline 981
 25F6           ;                         UDR=temp;
 25F6 8CB9              out 0xc,R24
 25F8                   .dbline 982
 25F8           ;                   break;
 25F8 02C0              xjmp L536
 25FA           L553:
 25FA                   .dbline 984
 25FA           ;              case 15://stop talking
 25FA           ;                         UDR=0xCC;
 25FA 8CEC              ldi R24,204
 25FC 8CB9              out 0xc,R24
 25FE                   .dbline 985
 25FE           ;                   break;
 25FE           L535:
 25FE           L536:
 25FE                   .dbline -2
 25FE           L534:
 25FE                   .dbline 0 ; func end
 25FE 5991              ld R21,y+
 2600 4991              ld R20,y+
 2602 0895              ret
 2604                   .dbend
 2604                   .dbfunc e post1 _post1 fV
                        .even
 2604           _post1::
 2604                   .dbline -1
 2604                   .dbline 989
 2604           ;              }
 2604           ; }
 2604           ; void post1(void)
 2604           ; {
 2604                   .dbline 990
 2604           ; switch(post_1)
 2604 00915600          lds R16,_post_1
 2608 1127              clr R17
 260A 0030              cpi R16,0
 260C 0107              cpc R16,R17
 260E 59F0              breq L559
 2610           X293:
 2610 0130              cpi R16,1
 2612 E0E0              ldi R30,0
 2614 1E07              cpc R17,R30
 2616 09F4              brne X312
 2618 C4C0              xjmp L570
 261A           X312:
 261A           X294:
 261A 0430              cpi R16,4
 261C E0E0              ldi R30,0
 261E 1E07              cpc R17,R30
 2620 09F4              brne X313
 2622 4FC1              xjmp L581
 2624           X313:
 2624           X295:
 2624 50C1              xjmp L556
 2626           L559:
 2626                   .dbline 993
 2626           ;        { 
 2626           ;          case 0:
 2626           ;           {
 2626                   .dbline 994
 2626           ;                 switch(t)
 2626 20904D00          lds R2,_t
 262A 30904E00          lds R3,_t+1
 262E 2220              tst R2
 2630 11F4              brne X296
 2632 3320              tst R3
 2634 29F1              breq L562
 2636           X296:
 2636 C101              movw R24,R2
 2638 8130              cpi R24,1
 263A E0E0              ldi R30,0
 263C 9E07              cpc R25,R30
 263E 09F4              brne X314
 2640 33C0              xjmp L563
 2642           X314:
 2642           X297:
 2642 8230              cpi R24,2
 2644 E0E0              ldi R30,0
 2646 9E07              cpc R25,R30
 2648 09F4              brne X315
 264A 42C0              xjmp L564
 264C           X315:
 264C           X298:
 264C 8330              cpi R24,3
 264E E0E0              ldi R30,0
 2650 9E07              cpc R25,R30
 2652 09F4              brne X316
 2654 51C0              xjmp L565
 2656           X316:
 2656           X299:
 2656 8430              cpi R24,4
 2658 E0E0              ldi R30,0
 265A 9E07              cpc R25,R30
 265C 09F4              brne X317
 265E 60C0              xjmp L566
 2660           X317:
 2660           X300:
 2660 8530              cpi R24,5
 2662 E0E0              ldi R30,0
 2664 9E07              cpc R25,R30
 2666 09F4              brne X318
 2668 6FC0              xjmp L567
 266A           X318:
 266A           X301:
 266A 8630              cpi R24,6
 266C E0E0              ldi R30,0
 266E 9E07              cpc R25,R30
 2670 09F4              brne X319
 2672 7EC0              xjmp L568
 2674           X319:
 2674           X302:
 2674 8730              cpi R24,7
 2676 E0E0              ldi R30,0
 2678 9E07              cpc R25,R30
 267A 09F4              brne X320
 267C 7EC0              xjmp L569
 267E           X320:
 267E           X303:
 267E 23C1              xjmp L557
 2680           L562:
 2680                   .dbline 997
 2680           ;                      {
 2680           ;                          case 0:
 2680           ;                         data=kprop_i>>4;
 2680 20906400          lds R2,_kprop_i
 2684 30906500          lds R3,_kprop_i+1
 2688 3694              lsr R3
 268A 2794              ror R2
 268C 3694              lsr R3
 268E 2794              ror R2
 2690 3694              lsr R3
 2692 2794              ror R2
 2694 3694              lsr R3
 2696 2794              ror R2
 2698 20925A00          sts _data,R2
 269C                   .dbline 998
 269C           ;                         data&=0x0F;
 269C 822D              mov R24,R2
 269E 8F70              andi R24,15
 26A0 80935A00          sts _data,R24
 26A4                   .dbline 999
 26A4           ;                         UDR=data;
 26A4 8CB9              out 0xc,R24
 26A6                   .dbline 1000
 26A6           ;                             break;
 26A6 0FC1              xjmp L557
 26A8           L563:
 26A8                   .dbline 1002
 26A8           ;                          case 1:      
 26A8           ;                         data=tinteg_i>>4;
 26A8 20906600          lds R2,_tinteg_i
 26AC 30906700          lds R3,_tinteg_i+1
 26B0 3694              lsr R3
 26B2 2794              ror R2
 26B4 3694              lsr R3
 26B6 2794              ror R2
 26B8 3694              lsr R3
 26BA 2794              ror R2
 26BC 3694              lsr R3
 26BE 2794              ror R2
 26C0 20925A00          sts _data,R2
 26C4                   .dbline 1003
 26C4           ;                         data|=0x10;
 26C4 822D              mov R24,R2
 26C6 8061              ori R24,16
 26C8 80935A00          sts _data,R24
 26CC                   .dbline 1004
 26CC           ;                         UDR=data;
 26CC 8CB9              out 0xc,R24
 26CE                   .dbline 1005
 26CE           ;                             break;
 26CE FBC0              xjmp L557
 26D0           L564:
 26D0                   .dbline 1007
 26D0           ;                          case 2:      
 26D0           ;                         data=kprop_v>>4;
 26D0 20905E00          lds R2,_kprop_v
 26D4 30905F00          lds R3,_kprop_v+1
 26D8 3694              lsr R3
 26DA 2794              ror R2
 26DC 3694              lsr R3
 26DE 2794              ror R2
 26E0 3694              lsr R3
 26E2 2794              ror R2
 26E4 3694              lsr R3
 26E6 2794              ror R2
 26E8 20925A00          sts _data,R2
 26EC                   .dbline 1008
 26EC           ;                         data|=0x20;;
 26EC 822D              mov R24,R2
 26EE 8062              ori R24,32
 26F0 80935A00          sts _data,R24
 26F4                   .dbline 1008
 26F4                   .dbline 1009
 26F4           ;                         UDR=data;
 26F4 8CB9              out 0xc,R24
 26F6                   .dbline 1010
 26F6           ;                             break;
 26F6 E7C0              xjmp L557
 26F8           L565:
 26F8                   .dbline 1012
 26F8           ;                          case 3:      
 26F8           ;                         data=tinteg_v>>4;
 26F8 20906000          lds R2,_tinteg_v
 26FC 30906100          lds R3,_tinteg_v+1
 2700 3694              lsr R3
 2702 2794              ror R2
 2704 3694              lsr R3
 2706 2794              ror R2
 2708 3694              lsr R3
 270A 2794              ror R2
 270C 3694              lsr R3
 270E 2794              ror R2
 2710 20925A00          sts _data,R2
 2714                   .dbline 1013
 2714           ;                         data|=0x30;
 2714 822D              mov R24,R2
 2716 8063              ori R24,48
 2718 80935A00          sts _data,R24
 271C                   .dbline 1014
 271C           ;                         UDR=data;
 271C 8CB9              out 0xc,R24
 271E                   .dbline 1015
 271E           ;                             break;
 271E D3C0              xjmp L557
 2720           L566:
 2720                   .dbline 1017
 2720           ;                      case 4:  
 2720           ;                         data=kos_i>>4;
 2720 20906C00          lds R2,_kos_i
 2724 30906D00          lds R3,_kos_i+1
 2728 3694              lsr R3
 272A 2794              ror R2
 272C 3694              lsr R3
 272E 2794              ror R2
 2730 3694              lsr R3
 2732 2794              ror R2
 2734 3694              lsr R3
 2736 2794              ror R2
 2738 20925A00          sts _data,R2
 273C                   .dbline 1018
 273C           ;                         data|=0x40;
 273C 822D              mov R24,R2
 273E 8064              ori R24,64
 2740 80935A00          sts _data,R24
 2744                   .dbline 1019
 2744           ;                         UDR=data;
 2744 8CB9              out 0xc,R24
 2746                   .dbline 1020
 2746           ;                             break;
 2746 BFC0              xjmp L557
 2748           L567:
 2748                   .dbline 1022
 2748           ;                          case 5:      
 2748           ;                         data=kos_v>>4;
 2748 20906A00          lds R2,_kos_v
 274C 30906B00          lds R3,_kos_v+1
 2750 3694              lsr R3
 2752 2794              ror R2
 2754 3694              lsr R3
 2756 2794              ror R2
 2758 3694              lsr R3
 275A 2794              ror R2
 275C 3694              lsr R3
 275E 2794              ror R2
 2760 20925A00          sts _data,R2
 2764                   .dbline 1023
 2764           ;                         data|=0x50;
 2764 822D              mov R24,R2
 2766 8065              ori R24,80
 2768 80935A00          sts _data,R24
 276C                   .dbline 1024
 276C           ;                         UDR=data;
 276C 8CB9              out 0xc,R24
 276E                   .dbline 1025
 276E           ;                             break;
 276E ABC0              xjmp L557
 2770           L568:
 2770                   .dbline 1028
 2770           ;                          case 6:      
 2770           ;                         //data=fkvant>>4;
 2770           ;                         data=0x60;
 2770 80E6              ldi R24,96
 2772 80935A00          sts _data,R24
 2776                   .dbline 1029
 2776           ;                         UDR=data;
 2776 8CB9              out 0xc,R24
 2778                   .dbline 1030
 2778           ;                             break;
 2778 A6C0              xjmp L557
 277A           L569:
 277A                   .dbline 1032
 277A           ;                         case 7:         
 277A           ;                         data=iupor>>4;
 277A 20906800          lds R2,_iupor
 277E 30906900          lds R3,_iupor+1
 2782 3694              lsr R3
 2784 2794              ror R2
 2786 3694              lsr R3
 2788 2794              ror R2
 278A 3694              lsr R3
 278C 2794              ror R2
 278E 3694              lsr R3
 2790 2794              ror R2
 2792 20925A00          sts _data,R2
 2796                   .dbline 1033
 2796           ;                         data|=0x70;
 2796 822D              mov R24,R2
 2798 8067              ori R24,112
 279A 80935A00          sts _data,R24
 279E                   .dbline 1034
 279E           ;                         UDR=data;
 279E 8CB9              out 0xc,R24
 27A0                   .dbline 1035
 27A0           ;                             break;
 27A0                   .dbline 1038
 27A0           ;                                 
 27A0           ;                   }
 27A0           ;                 }
 27A0                   .dbline 1039
 27A0           ;               break;
 27A0 92C0              xjmp L557
 27A2           L570:
 27A2                   .dbline 1041
 27A2           ;               case 1:
 27A2           ;                  {
 27A2                   .dbline 1042
 27A2           ;                 switch(t)
 27A2 20904D00          lds R2,_t
 27A6 30904E00          lds R3,_t+1
 27AA 2220              tst R2
 27AC 11F4              brne X304
 27AE 3320              tst R3
 27B0 19F1              breq L573
 27B2           X304:
 27B2 C101              movw R24,R2
 27B4 8130              cpi R24,1
 27B6 E0E0              ldi R30,0
 27B8 9E07              cpc R25,R30
 27BA 41F1              breq L574
 27BC           X305:
 27BC 8230              cpi R24,2
 27BE E0E0              ldi R30,0
 27C0 9E07              cpc R25,R30
 27C2 89F1              breq L575
 27C4           X306:
 27C4 8330              cpi R24,3
 27C6 E0E0              ldi R30,0
 27C8 9E07              cpc R25,R30
 27CA 09F4              brne X321
 27CC 39C0              xjmp L576
 27CE           X321:
 27CE           X307:
 27CE 8430              cpi R24,4
 27D0 E0E0              ldi R30,0
 27D2 9E07              cpc R25,R30
 27D4 09F4              brne X322
 27D6 41C0              xjmp L577
 27D8           X322:
 27D8           X308:
 27D8 8530              cpi R24,5
 27DA E0E0              ldi R30,0
 27DC 9E07              cpc R25,R30
 27DE 09F4              brne X323
 27E0 49C0              xjmp L578
 27E2           X323:
 27E2           X309:
 27E2 8630              cpi R24,6
 27E4 E0E0              ldi R30,0
 27E6 9E07              cpc R25,R30
 27E8 09F4              brne X324
 27EA 51C0              xjmp L579
 27EC           X324:
 27EC           X310:
 27EC 8730              cpi R24,7
 27EE E0E0              ldi R30,0
 27F0 9E07              cpc R25,R30
 27F2 09F4              brne X325
 27F4 59C0              xjmp L580
 27F6           X325:
 27F6           X311:
 27F6 67C0              xjmp L557
 27F8           L573:
 27F8                   .dbline 1045
 27F8           ;                       {
 27F8           ;                               case 0:
 27F8           ;                          data=kprop_i&0x0F;
 27F8 80916400          lds R24,_kprop_i
 27FC 90916500          lds R25,_kprop_i+1
 2800 8F70              andi R24,15
 2802 9070              andi R25,0
 2804 80935A00          sts _data,R24
 2808                   .dbline 1046
 2808           ;                          UDR=data;
 2808 8CB9              out 0xc,R24
 280A                   .dbline 1047
 280A           ;                              break;
 280A 5DC0              xjmp L557
 280C           L574:
 280C                   .dbline 1049
 280C           ;                               case 1:
 280C           ;                          data=tinteg_i&0x0F;
 280C 80916600          lds R24,_tinteg_i
 2810 90916700          lds R25,_tinteg_i+1
 2814 8F70              andi R24,15
 2816 9070              andi R25,0
 2818 80935A00          sts _data,R24
 281C                   .dbline 1050
 281C           ;                          data|=0x10;
 281C 8061              ori R24,16
 281E 80935A00          sts _data,R24
 2822                   .dbline 1051
 2822           ;                          UDR=data;
 2822 8CB9              out 0xc,R24
 2824                   .dbline 1052
 2824           ;                              break;
 2824 50C0              xjmp L557
 2826           L575:
 2826                   .dbline 1054
 2826           ;                               case 2:
 2826           ;                          data=kprop_v&0x0F;
 2826 80915E00          lds R24,_kprop_v
 282A 90915F00          lds R25,_kprop_v+1
 282E 8F70              andi R24,15
 2830 9070              andi R25,0
 2832 80935A00          sts _data,R24
 2836                   .dbline 1055
 2836           ;                          data|=0x20;
 2836 8062              ori R24,32
 2838 80935A00          sts _data,R24
 283C                   .dbline 1056
 283C           ;                          UDR=data;
 283C 8CB9              out 0xc,R24
 283E                   .dbline 1057
 283E           ;                              break;
 283E 43C0              xjmp L557
 2840           L576:
 2840                   .dbline 1059
 2840           ;                               case 3:
 2840           ;                          data=tinteg_v&0x0F;
 2840 80916000          lds R24,_tinteg_v
 2844 90916100          lds R25,_tinteg_v+1
 2848 8F70              andi R24,15
 284A 9070              andi R25,0
 284C 80935A00          sts _data,R24
 2850                   .dbline 1060
 2850           ;                          data|=0x30;
 2850 8063              ori R24,48
 2852 80935A00          sts _data,R24
 2856                   .dbline 1061
 2856           ;                          UDR=data;
 2856 8CB9              out 0xc,R24
 2858                   .dbline 1062
 2858           ;                              break;
 2858 36C0              xjmp L557
 285A           L577:
 285A                   .dbline 1064
 285A           ;                               case 4:
 285A           ;                          data=kos_i&0x0F;
 285A 80916C00          lds R24,_kos_i
 285E 90916D00          lds R25,_kos_i+1
 2862 8F70              andi R24,15
 2864 9070              andi R25,0
 2866 80935A00          sts _data,R24
 286A                   .dbline 1065
 286A           ;                          data|=0x40;
 286A 8064              ori R24,64
 286C 80935A00          sts _data,R24
 2870                   .dbline 1066
 2870           ;                          UDR=data;
 2870 8CB9              out 0xc,R24
 2872                   .dbline 1067
 2872           ;                              break;  
 2872 29C0              xjmp L557
 2874           L578:
 2874                   .dbline 1069
 2874           ;                               case 5:
 2874           ;                          data=kos_v&0x0F;
 2874 80916A00          lds R24,_kos_v
 2878 90916B00          lds R25,_kos_v+1
 287C 8F70              andi R24,15
 287E 9070              andi R25,0
 2880 80935A00          sts _data,R24
 2884                   .dbline 1070
 2884           ;                          data|=0x50;
 2884 8065              ori R24,80
 2886 80935A00          sts _data,R24
 288A                   .dbline 1071
 288A           ;                          UDR=data;
 288A 8CB9              out 0xc,R24
 288C                   .dbline 1072
 288C           ;                              break;
 288C 1CC0              xjmp L557
 288E           L579:
 288E                   .dbline 1074
 288E           ;                           case 6:
 288E           ;                          data=fkvant&0x0F;
 288E 80916200          lds R24,_fkvant
 2892 90916300          lds R25,_fkvant+1
 2896 8F70              andi R24,15
 2898 9070              andi R25,0
 289A 80935A00          sts _data,R24
 289E                   .dbline 1075
 289E           ;                          data|=0x60;
 289E 8066              ori R24,96
 28A0 80935A00          sts _data,R24
 28A4                   .dbline 1076
 28A4           ;                          UDR=data;
 28A4 8CB9              out 0xc,R24
 28A6                   .dbline 1077
 28A6           ;                              break;
 28A6 0FC0              xjmp L557
 28A8           L580:
 28A8                   .dbline 1079
 28A8           ;                           case 7:
 28A8           ;                          data=iupor&0x0F;
 28A8 80916800          lds R24,_iupor
 28AC 90916900          lds R25,_iupor+1
 28B0 8F70              andi R24,15
 28B2 9070              andi R25,0
 28B4 80935A00          sts _data,R24
 28B8                   .dbline 1080
 28B8           ;                          data|=0x70;
 28B8 8067              ori R24,112
 28BA 80935A00          sts _data,R24
 28BE                   .dbline 1081
 28BE           ;                          UDR=data;
 28BE 8CB9              out 0xc,R24
 28C0                   .dbline 1082
 28C0           ;                              break;
 28C0                   .dbline 1084
 28C0           ;                    }
 28C0           ;                  }
 28C0                   .dbline 1085
 28C0           ;               break;
 28C0 02C0              xjmp L557
 28C2           L581:
 28C2                   .dbline 1087
 28C2           ;               case 4:
 28C2           ;                  UDR=0x77;
 28C2 87E7              ldi R24,119
 28C4 8CB9              out 0xc,R24
 28C6                   .dbline 1088
 28C6           ;                  break;
 28C6           L556:
 28C6           L557:
 28C6                   .dbline -2
 28C6           L555:
 28C6                   .dbline 0 ; func end
 28C6 0895              ret
 28C8                   .dbend
                        .area bss(ram, con, rel)
 0000                   .dbfile C:\COPYSI~1\ildar.c
 0000           _volt_i::
 0000                   .blkb 2
 0002                   .dbsym e volt_i _volt_i I
 0002           _tok_i::
 0002                   .blkb 2
 0004                   .dbsym e tok_i _tok_i I
 0004           _voltage_i::
 0004                   .blkb 40
 002C                   .dbsym e voltage_i _voltage_i A[40:20]i
 002C           _current_i::
 002C                   .blkb 40
 0054                   .dbsym e current_i _current_i A[40:20]i
 0054           _tok_os::
 0054                   .blkb 2
 0056                   .dbsym e tok_os _tok_os I
 0056           _volt_os::
 0056                   .blkb 2
 0058                   .dbsym e volt_os _volt_os I
 0058           _value::
 0058                   .blkb 2
 005A                   .dbsym e value _value I
 005A           ;       }
 005A           ; }
 005A           ; 
 005A           ; 
 005A           ; 
